---
triple:          'arm64-apple-darwin'
binary-path:     Project2
relocations:
  - { offset: 0x3F, size: 0x8, addend: 0x0, symName: _shouldLog, symObjAddr: 0xDE240, symBinAddr: 0x100024000, symSize: 0x0 }
  - { offset: 0x5B, size: 0x8, addend: 0x0, symName: _logger, symObjAddr: 0xDE248, symBinAddr: 0x100024008, symSize: 0x0 }
  - { offset: 0xF263, size: 0x8, addend: 0x0, symName: __ZNSt3__119piecewise_constructE, symObjAddr: 0x1BE04, symBinAddr: 0x10001F13C, symSize: 0x0 }
  - { offset: 0x1973B, size: 0x8, addend: 0x0, symName: __ZNSt3__17advanceB8ne180100IPN6emplex5TokenEllvEEvRT_T0_, symObjAddr: 0x58E8, symBinAddr: 0x10000849C, symSize: 0x38 }
  - { offset: 0x199BB, size: 0x8, addend: 0x0, symName: __ZNSt3__17advanceB8ne180100INS_16reverse_iteratorIPN6emplex5TokenEEEllvEEvRT_T0_, symObjAddr: 0x5D08, symBinAddr: 0x1000088BC, symSize: 0x38 }
  - { offset: 0x19D84, size: 0x8, addend: 0x0, symName: __ZNSt3__17advanceB8ne180100IP8VarTablellvEEvRT_T0_, symObjAddr: 0x9E08, symBinAddr: 0x10000C9BC, symSize: 0x38 }
  - { offset: 0x1A004, size: 0x8, addend: 0x0, symName: __ZNSt3__17advanceB8ne180100INS_16reverse_iteratorIP8VarTableEEllvEEvRT_T0_, symObjAddr: 0xA1C8, symBinAddr: 0x10000CD7C, symSize: 0x38 }
  - { offset: 0x1A3A1, size: 0x8, addend: 0x0, symName: __ZNSt3__17advanceB8ne180100IPNS_10shared_ptrI7ASTNodeEEllvEEvRT_T0_, symObjAddr: 0xC15C, symBinAddr: 0x10000ED10, symSize: 0x38 }
  - { offset: 0x1A621, size: 0x8, addend: 0x0, symName: __ZNSt3__17advanceB8ne180100INS_16reverse_iteratorIPNS_10shared_ptrI7ASTNodeEEEEllvEEvRT_T0_, symObjAddr: 0xC514, symBinAddr: 0x10000F0C8, symSize: 0x38 }
  - { offset: 0x1A9EA, size: 0x8, addend: 0x0, symName: __ZNSt3__17advanceB8ne180100IPNS_10shared_ptrI3VarEEllvEEvRT_T0_, symObjAddr: 0xF804, symBinAddr: 0x1000123B8, symSize: 0x38 }
  - { offset: 0x1AC6A, size: 0x8, addend: 0x0, symName: __ZNSt3__17advanceB8ne180100INS_16reverse_iteratorIPNS_10shared_ptrI3VarEEEEllvEEvRT_T0_, symObjAddr: 0xFBBC, symBinAddr: 0x100012770, symSize: 0x38 }
  - { offset: 0x1B392, size: 0x8, addend: 0x0, symName: __ZNSt3__17advanceB8ne180100INS_11__wrap_iterIPK8VarTableEEllvEEvRT_T0_, symObjAddr: 0x143E4, symBinAddr: 0x100016F98, symSize: 0x38 }
  - { offset: 0x1B3FD, size: 0x8, addend: 0x0, symName: __ZNSt3__124__put_character_sequenceB8ne180100IcNS_11char_traitsIcEEEERNS_13basic_ostreamIT_T0_EES7_PKS4_m, symObjAddr: 0x158FC, symBinAddr: 0x1000184B0, symSize: 0x1EC }
  - { offset: 0x1BDCE, size: 0x8, addend: 0x0, symName: __ZNSt3__1lsB8ne180100INS_11char_traitsIcEEEERNS_13basic_ostreamIcT_EES6_PKc, symObjAddr: 0x3D8, symBinAddr: 0x100002F8C, symSize: 0x48 }
  - { offset: 0x1BE14, size: 0x8, addend: 0x0, symName: __ZNSt3__14endlB8ne180100IcNS_11char_traitsIcEEEERNS_13basic_ostreamIT_T0_EES7_, symObjAddr: 0x44C, symBinAddr: 0x100003000, symSize: 0x58 }
  - { offset: 0x1BE54, size: 0x8, addend: 0x0, symName: __ZNSt3__1eqB8ne180100IcNS_11char_traitsIcEENS_9allocatorIcEEEEbRKNS_12basic_stringIT_T0_T1_EEPKS6_, symObjAddr: 0x4A4, symBinAddr: 0x100003058, symSize: 0x5C }
  - { offset: 0x1BEAC, size: 0x8, addend: 0x0, symName: __ZNSt3__1lsB8ne180100IcNS_11char_traitsIcEENS_9allocatorIcEEEERNS_13basic_ostreamIT_T0_EES9_RKNS_12basic_stringIS6_S7_T1_EE, symObjAddr: 0x6C0, symBinAddr: 0x100003274, symSize: 0x4C }
  - { offset: 0x1BF04, size: 0x8, addend: 0x0, symName: __ZNSt3__1eqB8ne180100IcNS_11char_traitsIcEEEEbNS_17basic_string_viewIT_T0_EENS_13type_identityIS6_E4typeE, symObjAddr: 0xD78, symBinAddr: 0x10000392C, symSize: 0xB0 }
  - { offset: 0x1BF53, size: 0x8, addend: 0x0, symName: __ZNSt3__13minB8ne180100ImEERKT_S3_S3_, symObjAddr: 0x1000, symBinAddr: 0x100003BB4, symSize: 0x2C }
  - { offset: 0x1BF96, size: 0x8, addend: 0x0, symName: __ZNSt3__13minB8ne180100ImNS_6__lessIvvEEEERKT_S5_S5_T0_, symObjAddr: 0x1078, symBinAddr: 0x100003C2C, symSize: 0x54 }
  - { offset: 0x1C035, size: 0x8, addend: 0x0, symName: __ZNSt3__112__to_addressB8ne180100IKcEEPT_S3_, symObjAddr: 0x11B8, symBinAddr: 0x100003D6C, symSize: 0x14 }
  - { offset: 0x1C09D, size: 0x8, addend: 0x0, symName: __ZNSt3__128__char_traits_length_checkedB8ne180100INS_11char_traitsIcEEEEmPKNT_9char_typeE, symObjAddr: 0x13C0, symBinAddr: 0x100003F74, symSize: 0x24 }
  - { offset: 0x1C0D4, size: 0x8, addend: 0x0, symName: __ZNSt3__118__constexpr_strlenB8ne180100EPKc, symObjAddr: 0x1418, symBinAddr: 0x100003FCC, symSize: 0x24 }
  - { offset: 0x1C100, size: 0x8, addend: 0x0, symName: __ZNSt3__111make_sharedB8ne180100I7ASTNodeJS1_EvEENS_10shared_ptrIT_EEDpOT0_, symObjAddr: 0x174C, symBinAddr: 0x100004300, symSize: 0x40 }
  - { offset: 0x1C143, size: 0x8, addend: 0x0, symName: __ZNSt3__115allocate_sharedB8ne180100I7ASTNodeNS_9allocatorIS1_EEJS1_EvEENS_10shared_ptrIT_EERKT0_DpOT1_, symObjAddr: 0x2090, symBinAddr: 0x100004C44, symSize: 0x98 }
  - { offset: 0x1C409, size: 0x8, addend: 0x0, symName: __ZNSt3__117__libcpp_allocateB8ne180100Emm, symObjAddr: 0x249C, symBinAddr: 0x100005050, symSize: 0x60 }
  - { offset: 0x1C463, size: 0x8, addend: 0x0, symName: __ZNSt3__124__is_overaligned_for_newB8ne180100Em, symObjAddr: 0x2518, symBinAddr: 0x1000050CC, symSize: 0x20 }
  - { offset: 0x1C491, size: 0x8, addend: 0x0, symName: __ZNSt3__121__libcpp_operator_newB8ne180100IJmSt11align_val_tEEEPvDpT_, symObjAddr: 0x2538, symBinAddr: 0x1000050EC, symSize: 0x2C }
  - { offset: 0x1C4DE, size: 0x8, addend: 0x0, symName: __ZNSt3__121__libcpp_operator_newB8ne180100IJmEEEPvDpT_, symObjAddr: 0x2564, symBinAddr: 0x100005118, symSize: 0x24 }
  - { offset: 0x1C5D6, size: 0x8, addend: 0x0, symName: __ZNSt3__114__construct_atB8ne180100I7ASTNodeJS1_EPS1_EEPT_S4_DpOT0_, symObjAddr: 0x28D4, symBinAddr: 0x100005488, symSize: 0x2C }
  - { offset: 0x1C629, size: 0x8, addend: 0x0, symName: __ZNSt3__112construct_atB8ne180100I7ASTNodeJS1_EPS1_EEPT_S4_DpOT0_, symObjAddr: 0x2900, symBinAddr: 0x1000054B4, symSize: 0x34 }
  - { offset: 0x1C67C, size: 0x8, addend: 0x0, symName: __ZNSt3__112__destroy_atB8ne180100I7ASTNodeLi0EEEvPT_, symObjAddr: 0x2F14, symBinAddr: 0x100005AC8, symSize: 0x24 }
  - { offset: 0x1C6E6, size: 0x8, addend: 0x0, symName: __ZNSt3__119__libcpp_deallocateB8ne180100EPvmm, symObjAddr: 0x2FC4, symBinAddr: 0x100005B78, symSize: 0x60 }
  - { offset: 0x1C74B, size: 0x8, addend: 0x0, symName: __ZNSt3__127__do_deallocate_handle_sizeB8ne180100IJSt11align_val_tEEEvPvmDpT_, symObjAddr: 0x3024, symBinAddr: 0x100005BD8, symSize: 0x30 }
  - { offset: 0x1C79E, size: 0x8, addend: 0x0, symName: __ZNSt3__127__do_deallocate_handle_sizeB8ne180100IJEEEvPvmDpT_, symObjAddr: 0x3054, symBinAddr: 0x100005C08, symSize: 0x28 }
  - { offset: 0x1C7DC, size: 0x8, addend: 0x0, symName: __ZNSt3__124__libcpp_operator_deleteB8ne180100IJPvSt11align_val_tEEEvDpT_, symObjAddr: 0x307C, symBinAddr: 0x100005C30, symSize: 0x2C }
  - { offset: 0x1C825, size: 0x8, addend: 0x0, symName: __ZNSt3__124__libcpp_operator_deleteB8ne180100IJPvEEEvDpT_, symObjAddr: 0x30A8, symBinAddr: 0x100005C5C, symSize: 0x24 }
  - { offset: 0x1C85A, size: 0x8, addend: 0x0, symName: __ZNSt3__112__to_addressB8ne180100INS_10shared_ptrI7ASTNodeEEEEPT_S5_, symObjAddr: 0x377C, symBinAddr: 0x100006330, symSize: 0x14 }
  - { offset: 0x1C88F, size: 0x8, addend: 0x0, symName: __ZNSt3__112__destroy_atB8ne180100INS_10shared_ptrI7ASTNodeEELi0EEEvPT_, symObjAddr: 0x3790, symBinAddr: 0x100006344, symSize: 0x24 }
  - { offset: 0x1C8C6, size: 0x8, addend: 0x0, symName: __ZNSt3__15ssizeB8ne180100INS_17basic_string_viewIcNS_11char_traitsIcEEEEEENS_11common_typeIJlu13__make_signedIDTcldtfp_4sizeEEEEE4typeERKT_, symObjAddr: 0x3F24, symBinAddr: 0x100006AD8, symSize: 0x24 }
  - { offset: 0x1C8FB, size: 0x8, addend: 0x0, symName: __ZNSt3__15ssizeB8ne180100INS_12basic_stringIcNS_11char_traitsIcEENS_9allocatorIcEEEEEENS_11common_typeIJlu13__make_signedIDTcldtfp_4sizeEEEEE4typeERKT_, symObjAddr: 0x4158, symBinAddr: 0x100006D0C, symSize: 0x24 }
  - { offset: 0x1C930, size: 0x8, addend: 0x0, symName: __ZNSt3__15countB8ne180100INS_11__wrap_iterIPcEEcEENS_15iterator_traitsIT_E15difference_typeES5_S5_RKT0_, symObjAddr: 0x417C, symBinAddr: 0x100006D30, symSize: 0x48 }
  - { offset: 0x1C998, size: 0x8, addend: 0x0, symName: __ZNSt3__120__throw_out_of_rangeB8ne180100EPKc, symObjAddr: 0x42C4, symBinAddr: 0x100006E78, symSize: 0x64 }
  - { offset: 0x1C9C0, size: 0x8, addend: 0x0, symName: __ZNSt3__17__countB8ne180100INS_17_ClassicAlgPolicyENS_11__wrap_iterIPcEES4_cNS_10__identityEEENS_8_IterOpsIT_E17__difference_typeIT0_EESA_T1_RKT2_RT3_, symObjAddr: 0x4448, symBinAddr: 0x100006FFC, symSize: 0xA0 }
  - { offset: 0x1CA51, size: 0x8, addend: 0x0, symName: __ZNSt3__1neB8ne180100IPcEEbRKNS_11__wrap_iterIT_EES6_, symObjAddr: 0x44E8, symBinAddr: 0x10000709C, symSize: 0x34 }
  - { offset: 0x1CA94, size: 0x8, addend: 0x0, symName: __ZNSt3__18__invokeB8ne180100IRNS_10__identityEJRcEEEDTclclsr3stdE7declvalIT_EEspclsr3stdE7declvalIT0_EEEEOS4_DpOS5_, symObjAddr: 0x451C, symBinAddr: 0x1000070D0, symSize: 0x2C }
  - { offset: 0x1CAE5, size: 0x8, addend: 0x0, symName: __ZNSt3__1eqB8ne180100IPcEEbRKNS_11__wrap_iterIT_EES6_, symObjAddr: 0x4580, symBinAddr: 0x100007134, symSize: 0x48 }
  - { offset: 0x1CB55, size: 0x8, addend: 0x0, symName: __ZNSt3__112__to_addressB8ne180100IN6emplex5TokenEEEPT_S4_, symObjAddr: 0x49A0, symBinAddr: 0x100007554, symSize: 0x14 }
  - { offset: 0x1CB8A, size: 0x8, addend: 0x0, symName: __ZNSt3__114__construct_atB8ne180100IN6emplex5TokenEJRKS2_EPS2_EEPT_S7_DpOT0_, symObjAddr: 0x4A2C, symBinAddr: 0x1000075E0, symSize: 0x2C }
  - { offset: 0x1CBDD, size: 0x8, addend: 0x0, symName: __ZNSt3__112construct_atB8ne180100IN6emplex5TokenEJRKS2_EPS2_EEPT_S7_DpOT0_, symObjAddr: 0x4A58, symBinAddr: 0x10000760C, symSize: 0x34 }
  - { offset: 0x1CC30, size: 0x8, addend: 0x0, symName: __ZNSt3__13maxB8ne180100ImEERKT_S3_S3_, symObjAddr: 0x4E84, symBinAddr: 0x100007A38, symSize: 0x2C }
  - { offset: 0x1CE5D, size: 0x8, addend: 0x0, symName: __ZNSt3__120__throw_length_errorB8ne180100EPKc, symObjAddr: 0x4F54, symBinAddr: 0x100007B08, symSize: 0x64 }
  - { offset: 0x1CE85, size: 0x8, addend: 0x0, symName: __ZNSt3__13maxB8ne180100ImNS_6__lessIvvEEEERKT_S5_S5_T0_, symObjAddr: 0x5090, symBinAddr: 0x100007C44, symSize: 0x54 }
  - { offset: 0x1CEDF, size: 0x8, addend: 0x0, symName: __ZNSt3__119__allocate_at_leastB8ne180100INS_9allocatorIN6emplex5TokenEEEEENS_19__allocation_resultINS_16allocator_traitsIT_E7pointerEEERS7_m, symObjAddr: 0x5200, symBinAddr: 0x100007DB4, symSize: 0x40 }
  - { offset: 0x1CF22, size: 0x8, addend: 0x0, symName: __ZNSt3__142__uninitialized_allocator_move_if_noexceptB8ne180100INS_9allocatorIN6emplex5TokenEEENS_16reverse_iteratorIPS3_EES7_S7_EET2_RT_T0_T1_S8_, symObjAddr: 0x53C8, symBinAddr: 0x100007F7C, symSize: 0x12C }
  - { offset: 0x1CFC2, size: 0x8, addend: 0x0, symName: __ZNSt3__14swapB8ne180100IPN6emplex5TokenEEENS_9enable_ifIXaasr21is_move_constructibleIT_EE5valuesr18is_move_assignableIS5_EE5valueEvE4typeERS5_S8_, symObjAddr: 0x5540, symBinAddr: 0x1000080F4, symSize: 0x3C }
  - { offset: 0x1D013, size: 0x8, addend: 0x0, symName: __ZNSt3__122__make_exception_guardB8ne180100INS_29_AllocatorDestroyRangeReverseINS_9allocatorIN6emplex5TokenEEENS_16reverse_iteratorIPS4_EEEEEENS_28__exception_guard_exceptionsIT_EESB_, symObjAddr: 0x5590, symBinAddr: 0x100008144, symSize: 0x4C }
  - { offset: 0x1D049, size: 0x8, addend: 0x0, symName: __ZNSt3__1neB8ne180100IPN6emplex5TokenES3_EEbRKNS_16reverse_iteratorIT_EERKNS4_IT0_EE, symObjAddr: 0x5620, symBinAddr: 0x1000081D4, symSize: 0x48 }
  - { offset: 0x1D095, size: 0x8, addend: 0x0, symName: __ZNSt3__112__to_addressB8ne180100INS_16reverse_iteratorIPN6emplex5TokenEEEvEEu7__decayIDTclsr19__to_address_helperIT_EE6__callclsr3stdE7declvalIRKS6_EEEEES8_, symObjAddr: 0x5698, symBinAddr: 0x10000824C, symSize: 0x24 }
  - { offset: 0x1D0CB, size: 0x8, addend: 0x0, symName: __ZNSt3__114__construct_atB8ne180100IN6emplex5TokenEJS2_EPS2_EEPT_S5_DpOT0_, symObjAddr: 0x57E8, symBinAddr: 0x10000839C, symSize: 0x2C }
  - { offset: 0x1D11E, size: 0x8, addend: 0x0, symName: __ZNSt3__112construct_atB8ne180100IN6emplex5TokenEJS2_EPS2_EEPT_S5_DpOT0_, symObjAddr: 0x5814, symBinAddr: 0x1000083C8, symSize: 0x34 }
  - { offset: 0x1D19A, size: 0x8, addend: 0x0, symName: __ZNSt3__14prevB8ne180100IPN6emplex5TokenELi0EEET_S4_NS_15iterator_traitsIS4_E15difference_typeE, symObjAddr: 0x58AC, symBinAddr: 0x100008460, symSize: 0x3C }
  - { offset: 0x1D1E3, size: 0x8, addend: 0x0, symName: __ZNSt3__121__convert_to_integralB8ne180100El, symObjAddr: 0x5920, symBinAddr: 0x1000084D4, symSize: 0x14 }
  - { offset: 0x1D20F, size: 0x8, addend: 0x0, symName: __ZNSt3__19__advanceB8ne180100IPN6emplex5TokenEEEvRT_NS_15iterator_traitsIS4_E15difference_typeENS_26random_access_iterator_tagE, symObjAddr: 0x5934, symBinAddr: 0x1000084E8, symSize: 0x30 }
  - { offset: 0x1D258, size: 0x8, addend: 0x0, symName: __ZNSt3__119__allocator_destroyB8ne180100INS_9allocatorIN6emplex5TokenEEENS_16reverse_iteratorINS5_IPS3_EEEES8_EEvRT_T0_T1_, symObjAddr: 0x5A68, symBinAddr: 0x10000861C, symSize: 0x70 }
  - { offset: 0x1D2BD, size: 0x8, addend: 0x0, symName: __ZNSt3__1neB8ne180100INS_16reverse_iteratorIPN6emplex5TokenEEES5_EEbRKNS1_IT_EERKNS1_IT0_EE, symObjAddr: 0x5B14, symBinAddr: 0x1000086C8, symSize: 0x60 }
  - { offset: 0x1D309, size: 0x8, addend: 0x0, symName: __ZNSt3__112__to_addressB8ne180100INS_16reverse_iteratorINS1_IPN6emplex5TokenEEEEEvEEu7__decayIDTclsr19__to_address_helperIT_EE6__callclsr3stdE7declvalIRKS7_EEEEES9_, symObjAddr: 0x5B9C, symBinAddr: 0x100008750, symSize: 0x24 }
  - { offset: 0x1D33F, size: 0x8, addend: 0x0, symName: __ZNSt3__112__destroy_atB8ne180100IN6emplex5TokenELi0EEEvPT_, symObjAddr: 0x5C14, symBinAddr: 0x1000087C8, symSize: 0x24 }
  - { offset: 0x1D39F, size: 0x8, addend: 0x0, symName: __ZNSt3__14prevB8ne180100INS_16reverse_iteratorIPN6emplex5TokenEEELi0EEET_S6_NS_15iterator_traitsIS6_E15difference_typeE, symObjAddr: 0x5CBC, symBinAddr: 0x100008870, symSize: 0x4C }
  - { offset: 0x1D3E8, size: 0x8, addend: 0x0, symName: __ZNSt3__19__advanceB8ne180100INS_16reverse_iteratorIPN6emplex5TokenEEEEEvRT_NS_15iterator_traitsIS6_E15difference_typeENS_26random_access_iterator_tagE, symObjAddr: 0x5D40, symBinAddr: 0x1000088F4, symSize: 0x2C }
  - { offset: 0x1D431, size: 0x8, addend: 0x0, symName: __ZNSt3__1eqB8ne180100IcNS_11char_traitsIcEEEEbRKNS_19istreambuf_iteratorIT_T0_EES8_, symObjAddr: 0x6314, symBinAddr: 0x100008EC8, symSize: 0x30 }
  - { offset: 0x1DA17, size: 0x8, addend: 0x0, symName: __ZNSt3__110to_addressB8ne180100IcEEDaPT_, symObjAddr: 0x7084, symBinAddr: 0x100009C38, symSize: 0x24 }
  - { offset: 0x1DA4C, size: 0x8, addend: 0x0, symName: __ZNSt3__112__to_addressB8ne180100IcEEPT_S2_, symObjAddr: 0x70A8, symBinAddr: 0x100009C5C, symSize: 0x14 }
  - { offset: 0x1DA81, size: 0x8, addend: 0x0, symName: __ZNSt3__134__libcpp_atomic_refcount_decrementB8ne180100IlEET_RS1_, symObjAddr: 0x7450, symBinAddr: 0x10000A004, symSize: 0x30 }
  - { offset: 0x1DAB6, size: 0x8, addend: 0x0, symName: __ZNSt3__112__to_addressB8ne180100INS_10shared_ptrI3VarEEEEPT_S5_, symObjAddr: 0x77C0, symBinAddr: 0x10000A374, symSize: 0x14 }
  - { offset: 0x1DAEB, size: 0x8, addend: 0x0, symName: __ZNSt3__112__destroy_atB8ne180100INS_10shared_ptrI3VarEELi0EEEvPT_, symObjAddr: 0x77D4, symBinAddr: 0x10000A388, symSize: 0x24 }
  - { offset: 0x1DB22, size: 0x8, addend: 0x0, symName: __ZNSt3__112__to_addressB8ne180100I8VarTableEEPT_S3_, symObjAddr: 0x7C00, symBinAddr: 0x10000A7B4, symSize: 0x14 }
  - { offset: 0x1DB57, size: 0x8, addend: 0x0, symName: __ZNSt3__112__destroy_atB8ne180100I8VarTableLi0EEEvPT_, symObjAddr: 0x7C14, symBinAddr: 0x10000A7C8, symSize: 0x24 }
  - { offset: 0x1DB8E, size: 0x8, addend: 0x0, symName: __ZNSt3__112__destroy_atB8ne180100INS_11__hash_nodeINS_17__hash_value_typeINS_12basic_stringIcNS_11char_traitsIcEENS_9allocatorIcEEEENS_10shared_ptrI3VarEEEEPvEELi0EEEvPT_, symObjAddr: 0x7F1C, symBinAddr: 0x10000AAD0, symSize: 0x24 }
  - { offset: 0x1DBF8, size: 0x8, addend: 0x0, symName: __ZNSt3__112__destroy_atB8ne180100INS_4pairIKNS_12basic_stringIcNS_11char_traitsIcEENS_9allocatorIcEEEENS_10shared_ptrI3VarEEEELi0EEEvPT_, symObjAddr: 0x7FC0, symBinAddr: 0x10000AB74, symSize: 0x24 }
  - { offset: 0x1DC2F, size: 0x8, addend: 0x0, symName: __ZNSt3__17launderB8ne180100INS_4pairIKNS_12basic_stringIcNS_11char_traitsIcEENS_9allocatorIcEEEENS_10shared_ptrI3VarEEEEEEPT_SE_, symObjAddr: 0x806C, symBinAddr: 0x10000AC20, symSize: 0x24 }
  - { offset: 0x1DC66, size: 0x8, addend: 0x0, symName: __ZNSt3__19__launderB8ne180100INS_4pairIKNS_12basic_stringIcNS_11char_traitsIcEENS_9allocatorIcEEEENS_10shared_ptrI3VarEEEEEEPT_SE_, symObjAddr: 0x8090, symBinAddr: 0x10000AC44, symSize: 0x14 }
  - { offset: 0x1DC9D, size: 0x8, addend: 0x0, symName: __ZNSt3__114__construct_atB8ne180100I8VarTableJS1_EPS1_EEPT_S4_DpOT0_, symObjAddr: 0x8BEC, symBinAddr: 0x10000B7A0, symSize: 0x2C }
  - { offset: 0x1DCF0, size: 0x8, addend: 0x0, symName: __ZNSt3__112construct_atB8ne180100I8VarTableJS1_EPS1_EEPT_S4_DpOT0_, symObjAddr: 0x8C18, symBinAddr: 0x10000B7CC, symSize: 0x34 }
  - { offset: 0x1DD43, size: 0x8, addend: 0x0, symName: __ZNSt3__116__constrain_hashB8ne180100Emm, symObjAddr: 0x8F10, symBinAddr: 0x10000BAC4, symSize: 0x98 }
  - { offset: 0x1DD7D, size: 0x8, addend: 0x0, symName: __ZNSt3__119__allocate_at_leastB8ne180100INS_9allocatorI8VarTableEEEENS_19__allocation_resultINS_16allocator_traitsIT_E7pointerEEERS6_m, symObjAddr: 0x97C0, symBinAddr: 0x10000C374, symSize: 0x40 }
  - { offset: 0x1DDC0, size: 0x8, addend: 0x0, symName: __ZNSt3__142__uninitialized_allocator_move_if_noexceptB8ne180100INS_9allocatorI8VarTableEENS_16reverse_iteratorIPS2_EES6_S6_EET2_RT_T0_T1_S7_, symObjAddr: 0x9978, symBinAddr: 0x10000C52C, symSize: 0x12C }
  - { offset: 0x1DE60, size: 0x8, addend: 0x0, symName: __ZNSt3__14swapB8ne180100IP8VarTableEENS_9enable_ifIXaasr21is_move_constructibleIT_EE5valuesr18is_move_assignableIS4_EE5valueEvE4typeERS4_S7_, symObjAddr: 0x9AF0, symBinAddr: 0x10000C6A4, symSize: 0x3C }
  - { offset: 0x1DEB1, size: 0x8, addend: 0x0, symName: __ZNSt3__122__make_exception_guardB8ne180100INS_29_AllocatorDestroyRangeReverseINS_9allocatorI8VarTableEENS_16reverse_iteratorIPS3_EEEEEENS_28__exception_guard_exceptionsIT_EESA_, symObjAddr: 0x9B40, symBinAddr: 0x10000C6F4, symSize: 0x4C }
  - { offset: 0x1DEE7, size: 0x8, addend: 0x0, symName: __ZNSt3__1neB8ne180100IP8VarTableS2_EEbRKNS_16reverse_iteratorIT_EERKNS3_IT0_EE, symObjAddr: 0x9BD0, symBinAddr: 0x10000C784, symSize: 0x48 }
  - { offset: 0x1DF33, size: 0x8, addend: 0x0, symName: __ZNSt3__112__to_addressB8ne180100INS_16reverse_iteratorIP8VarTableEEvEEu7__decayIDTclsr19__to_address_helperIT_EE6__callclsr3stdE7declvalIRKS5_EEEEES7_, symObjAddr: 0x9C18, symBinAddr: 0x10000C7CC, symSize: 0x24 }
  - { offset: 0x1DF92, size: 0x8, addend: 0x0, symName: __ZNSt3__14prevB8ne180100IP8VarTableLi0EEET_S3_NS_15iterator_traitsIS3_E15difference_typeE, symObjAddr: 0x9DCC, symBinAddr: 0x10000C980, symSize: 0x3C }
  - { offset: 0x1DFDB, size: 0x8, addend: 0x0, symName: __ZNSt3__19__advanceB8ne180100IP8VarTableEEvRT_NS_15iterator_traitsIS3_E15difference_typeENS_26random_access_iterator_tagE, symObjAddr: 0x9E40, symBinAddr: 0x10000C9F4, symSize: 0x30 }
  - { offset: 0x1E024, size: 0x8, addend: 0x0, symName: __ZNSt3__119__allocator_destroyB8ne180100INS_9allocatorI8VarTableEENS_16reverse_iteratorINS4_IPS2_EEEES7_EEvRT_T0_T1_, symObjAddr: 0x9F74, symBinAddr: 0x10000CB28, symSize: 0x70 }
  - { offset: 0x1E089, size: 0x8, addend: 0x0, symName: __ZNSt3__1neB8ne180100INS_16reverse_iteratorIP8VarTableEES4_EEbRKNS1_IT_EERKNS1_IT0_EE, symObjAddr: 0xA020, symBinAddr: 0x10000CBD4, symSize: 0x60 }
  - { offset: 0x1E0D5, size: 0x8, addend: 0x0, symName: __ZNSt3__112__to_addressB8ne180100INS_16reverse_iteratorINS1_IP8VarTableEEEEvEEu7__decayIDTclsr19__to_address_helperIT_EE6__callclsr3stdE7declvalIRKS6_EEEEES8_, symObjAddr: 0xA080, symBinAddr: 0x10000CC34, symSize: 0x24 }
  - { offset: 0x1E134, size: 0x8, addend: 0x0, symName: __ZNSt3__14prevB8ne180100INS_16reverse_iteratorIP8VarTableEELi0EEET_S5_NS_15iterator_traitsIS5_E15difference_typeE, symObjAddr: 0xA17C, symBinAddr: 0x10000CD30, symSize: 0x4C }
  - { offset: 0x1E17D, size: 0x8, addend: 0x0, symName: __ZNSt3__19__advanceB8ne180100INS_16reverse_iteratorIP8VarTableEEEEvRT_NS_15iterator_traitsIS5_E15difference_typeENS_26random_access_iterator_tagE, symObjAddr: 0xA200, symBinAddr: 0x10000CDB4, symSize: 0x2C }
  - { offset: 0x1E1C6, size: 0x8, addend: 0x0, symName: __ZNSt3__114__construct_atB8ne180100INS_10shared_ptrI7ASTNodeEEJRKS3_EPS3_EEPT_S8_DpOT0_, symObjAddr: 0xB524, symBinAddr: 0x10000E0D8, symSize: 0x2C }
  - { offset: 0x1E219, size: 0x8, addend: 0x0, symName: __ZNSt3__112construct_atB8ne180100INS_10shared_ptrI7ASTNodeEEJRKS3_EPS3_EEPT_S8_DpOT0_, symObjAddr: 0xB550, symBinAddr: 0x10000E104, symSize: 0x34 }
  - { offset: 0x1E26C, size: 0x8, addend: 0x0, symName: __ZNSt3__119__allocate_at_leastB8ne180100INS_9allocatorINS_10shared_ptrI7ASTNodeEEEEEENS_19__allocation_resultINS_16allocator_traitsIT_E7pointerEEERS8_m, symObjAddr: 0xBA14, symBinAddr: 0x10000E5C8, symSize: 0x40 }
  - { offset: 0x1E2AF, size: 0x8, addend: 0x0, symName: __ZNSt3__142__uninitialized_allocator_move_if_noexceptB8ne180100INS_9allocatorINS_10shared_ptrI7ASTNodeEEEENS_16reverse_iteratorIPS4_EES8_S8_EET2_RT_T0_T1_S9_, symObjAddr: 0xBBC8, symBinAddr: 0x10000E77C, symSize: 0x12C }
  - { offset: 0x1E34F, size: 0x8, addend: 0x0, symName: __ZNSt3__14swapB8ne180100IPNS_10shared_ptrI7ASTNodeEEEENS_9enable_ifIXaasr21is_move_constructibleIT_EE5valuesr18is_move_assignableIS6_EE5valueEvE4typeERS6_S9_, symObjAddr: 0xBD40, symBinAddr: 0x10000E8F4, symSize: 0x3C }
  - { offset: 0x1E3A0, size: 0x8, addend: 0x0, symName: __ZNSt3__122__make_exception_guardB8ne180100INS_29_AllocatorDestroyRangeReverseINS_9allocatorINS_10shared_ptrI7ASTNodeEEEENS_16reverse_iteratorIPS5_EEEEEENS_28__exception_guard_exceptionsIT_EESC_, symObjAddr: 0xBD90, symBinAddr: 0x10000E944, symSize: 0x4C }
  - { offset: 0x1E3D6, size: 0x8, addend: 0x0, symName: __ZNSt3__1neB8ne180100IPNS_10shared_ptrI7ASTNodeEES4_EEbRKNS_16reverse_iteratorIT_EERKNS5_IT0_EE, symObjAddr: 0xBE20, symBinAddr: 0x10000E9D4, symSize: 0x48 }
  - { offset: 0x1E422, size: 0x8, addend: 0x0, symName: __ZNSt3__112__to_addressB8ne180100INS_16reverse_iteratorIPNS_10shared_ptrI7ASTNodeEEEEvEEu7__decayIDTclsr19__to_address_helperIT_EE6__callclsr3stdE7declvalIRKS7_EEEEES9_, symObjAddr: 0xBE98, symBinAddr: 0x10000EA4C, symSize: 0x24 }
  - { offset: 0x1E458, size: 0x8, addend: 0x0, symName: __ZNSt3__114__construct_atB8ne180100INS_10shared_ptrI7ASTNodeEEJS3_EPS3_EEPT_S6_DpOT0_, symObjAddr: 0xBFE8, symBinAddr: 0x10000EB9C, symSize: 0x2C }
  - { offset: 0x1E4AB, size: 0x8, addend: 0x0, symName: __ZNSt3__112construct_atB8ne180100INS_10shared_ptrI7ASTNodeEEJS3_EPS3_EEPT_S6_DpOT0_, symObjAddr: 0xC014, symBinAddr: 0x10000EBC8, symSize: 0x34 }
  - { offset: 0x1E527, size: 0x8, addend: 0x0, symName: __ZNSt3__14prevB8ne180100IPNS_10shared_ptrI7ASTNodeEELi0EEET_S5_NS_15iterator_traitsIS5_E15difference_typeE, symObjAddr: 0xC120, symBinAddr: 0x10000ECD4, symSize: 0x3C }
  - { offset: 0x1E570, size: 0x8, addend: 0x0, symName: __ZNSt3__19__advanceB8ne180100IPNS_10shared_ptrI7ASTNodeEEEEvRT_NS_15iterator_traitsIS5_E15difference_typeENS_26random_access_iterator_tagE, symObjAddr: 0xC194, symBinAddr: 0x10000ED48, symSize: 0x28 }
  - { offset: 0x1E5B9, size: 0x8, addend: 0x0, symName: __ZNSt3__119__allocator_destroyB8ne180100INS_9allocatorINS_10shared_ptrI7ASTNodeEEEENS_16reverse_iteratorINS6_IPS4_EEEES9_EEvRT_T0_T1_, symObjAddr: 0xC2C0, symBinAddr: 0x10000EE74, symSize: 0x70 }
  - { offset: 0x1E61E, size: 0x8, addend: 0x0, symName: __ZNSt3__1neB8ne180100INS_16reverse_iteratorIPNS_10shared_ptrI7ASTNodeEEEES6_EEbRKNS1_IT_EERKNS1_IT0_EE, symObjAddr: 0xC36C, symBinAddr: 0x10000EF20, symSize: 0x60 }
  - { offset: 0x1E66A, size: 0x8, addend: 0x0, symName: __ZNSt3__112__to_addressB8ne180100INS_16reverse_iteratorINS1_IPNS_10shared_ptrI7ASTNodeEEEEEEvEEu7__decayIDTclsr19__to_address_helperIT_EE6__callclsr3stdE7declvalIRKS8_EEEEESA_, symObjAddr: 0xC3CC, symBinAddr: 0x10000EF80, symSize: 0x24 }
  - { offset: 0x1E6C9, size: 0x8, addend: 0x0, symName: __ZNSt3__14prevB8ne180100INS_16reverse_iteratorIPNS_10shared_ptrI7ASTNodeEEEELi0EEET_S7_NS_15iterator_traitsIS7_E15difference_typeE, symObjAddr: 0xC4C8, symBinAddr: 0x10000F07C, symSize: 0x4C }
  - { offset: 0x1E712, size: 0x8, addend: 0x0, symName: __ZNSt3__19__advanceB8ne180100INS_16reverse_iteratorIPNS_10shared_ptrI7ASTNodeEEEEEEvRT_NS_15iterator_traitsIS7_E15difference_typeENS_26random_access_iterator_tagE, symObjAddr: 0xC54C, symBinAddr: 0x10000F100, symSize: 0x2C }
  - { offset: 0x1E75B, size: 0x8, addend: 0x0, symName: __ZNSt3__114__construct_atB8ne180100INS_10shared_ptrI3VarEEJS3_EPS3_EEPT_S6_DpOT0_, symObjAddr: 0xEC84, symBinAddr: 0x100011838, symSize: 0x2C }
  - { offset: 0x1E7AE, size: 0x8, addend: 0x0, symName: __ZNSt3__112construct_atB8ne180100INS_10shared_ptrI3VarEEJS3_EPS3_EEPT_S6_DpOT0_, symObjAddr: 0xECB0, symBinAddr: 0x100011864, symSize: 0x34 }
  - { offset: 0x1E801, size: 0x8, addend: 0x0, symName: __ZNSt3__119__allocate_at_leastB8ne180100INS_9allocatorINS_10shared_ptrI3VarEEEEEENS_19__allocation_resultINS_16allocator_traitsIT_E7pointerEEERS8_m, symObjAddr: 0xF1C0, symBinAddr: 0x100011D74, symSize: 0x40 }
  - { offset: 0x1E844, size: 0x8, addend: 0x0, symName: __ZNSt3__142__uninitialized_allocator_move_if_noexceptB8ne180100INS_9allocatorINS_10shared_ptrI3VarEEEENS_16reverse_iteratorIPS4_EES8_S8_EET2_RT_T0_T1_S9_, symObjAddr: 0xF374, symBinAddr: 0x100011F28, symSize: 0x12C }
  - { offset: 0x1E8E4, size: 0x8, addend: 0x0, symName: __ZNSt3__14swapB8ne180100IPNS_10shared_ptrI3VarEEEENS_9enable_ifIXaasr21is_move_constructibleIT_EE5valuesr18is_move_assignableIS6_EE5valueEvE4typeERS6_S9_, symObjAddr: 0xF4EC, symBinAddr: 0x1000120A0, symSize: 0x3C }
  - { offset: 0x1E935, size: 0x8, addend: 0x0, symName: __ZNSt3__122__make_exception_guardB8ne180100INS_29_AllocatorDestroyRangeReverseINS_9allocatorINS_10shared_ptrI3VarEEEENS_16reverse_iteratorIPS5_EEEEEENS_28__exception_guard_exceptionsIT_EESC_, symObjAddr: 0xF53C, symBinAddr: 0x1000120F0, symSize: 0x4C }
  - { offset: 0x1E96B, size: 0x8, addend: 0x0, symName: __ZNSt3__1neB8ne180100IPNS_10shared_ptrI3VarEES4_EEbRKNS_16reverse_iteratorIT_EERKNS5_IT0_EE, symObjAddr: 0xF5CC, symBinAddr: 0x100012180, symSize: 0x48 }
  - { offset: 0x1E9B7, size: 0x8, addend: 0x0, symName: __ZNSt3__112__to_addressB8ne180100INS_16reverse_iteratorIPNS_10shared_ptrI3VarEEEEvEEu7__decayIDTclsr19__to_address_helperIT_EE6__callclsr3stdE7declvalIRKS7_EEEEES9_, symObjAddr: 0xF614, symBinAddr: 0x1000121C8, symSize: 0x24 }
  - { offset: 0x1EA16, size: 0x8, addend: 0x0, symName: __ZNSt3__14prevB8ne180100IPNS_10shared_ptrI3VarEELi0EEET_S5_NS_15iterator_traitsIS5_E15difference_typeE, symObjAddr: 0xF7C8, symBinAddr: 0x10001237C, symSize: 0x3C }
  - { offset: 0x1EA5F, size: 0x8, addend: 0x0, symName: __ZNSt3__19__advanceB8ne180100IPNS_10shared_ptrI3VarEEEEvRT_NS_15iterator_traitsIS5_E15difference_typeENS_26random_access_iterator_tagE, symObjAddr: 0xF83C, symBinAddr: 0x1000123F0, symSize: 0x28 }
  - { offset: 0x1EAA8, size: 0x8, addend: 0x0, symName: __ZNSt3__119__allocator_destroyB8ne180100INS_9allocatorINS_10shared_ptrI3VarEEEENS_16reverse_iteratorINS6_IPS4_EEEES9_EEvRT_T0_T1_, symObjAddr: 0xF968, symBinAddr: 0x10001251C, symSize: 0x70 }
  - { offset: 0x1EB0D, size: 0x8, addend: 0x0, symName: __ZNSt3__1neB8ne180100INS_16reverse_iteratorIPNS_10shared_ptrI3VarEEEES6_EEbRKNS1_IT_EERKNS1_IT0_EE, symObjAddr: 0xFA14, symBinAddr: 0x1000125C8, symSize: 0x60 }
  - { offset: 0x1EB59, size: 0x8, addend: 0x0, symName: __ZNSt3__112__to_addressB8ne180100INS_16reverse_iteratorINS1_IPNS_10shared_ptrI3VarEEEEEEvEEu7__decayIDTclsr19__to_address_helperIT_EE6__callclsr3stdE7declvalIRKS8_EEEEESA_, symObjAddr: 0xFA74, symBinAddr: 0x100012628, symSize: 0x24 }
  - { offset: 0x1EBB8, size: 0x8, addend: 0x0, symName: __ZNSt3__14prevB8ne180100INS_16reverse_iteratorIPNS_10shared_ptrI3VarEEEELi0EEET_S7_NS_15iterator_traitsIS7_E15difference_typeE, symObjAddr: 0xFB70, symBinAddr: 0x100012724, symSize: 0x4C }
  - { offset: 0x1EC01, size: 0x8, addend: 0x0, symName: __ZNSt3__19__advanceB8ne180100INS_16reverse_iteratorIPNS_10shared_ptrI3VarEEEEEEvRT_NS_15iterator_traitsIS7_E15difference_typeENS_26random_access_iterator_tagE, symObjAddr: 0xFBF4, symBinAddr: 0x1000127A8, symSize: 0x2C }
  - { offset: 0x1EC4A, size: 0x8, addend: 0x0, symName: __ZNSt3__1plB8ne180100IcNS_11char_traitsIcEENS_9allocatorIcEEEENS_12basic_stringIT_T0_T1_EEOS9_PKS6_, symObjAddr: 0xFF14, symBinAddr: 0x100012AC8, symSize: 0x40 }
  - { offset: 0x1ECA2, size: 0x8, addend: 0x0, symName: __ZNSt3__111make_sharedB8ne180100I3VarJS1_EvEENS_10shared_ptrIT_EEDpOT0_, symObjAddr: 0xFF54, symBinAddr: 0x100012B08, symSize: 0x40 }
  - { offset: 0x1ECE5, size: 0x8, addend: 0x0, symName: __ZNSt3__1eqB8ne180100ERKNS_25__hash_map_const_iteratorINS_21__hash_const_iteratorIPNS_11__hash_nodeINS_17__hash_value_typeINS_12basic_stringIcNS_11char_traitsIcEENS_9allocatorIcEEEENS_10shared_ptrI3VarEEEEPvEEEEEESK_, symObjAddr: 0x100C4, symBinAddr: 0x100012C78, symSize: 0x30 }
  - { offset: 0x1ED22, size: 0x8, addend: 0x0, symName: __ZNSt3__1eqB8ne180100ERKNS_21__hash_const_iteratorIPNS_11__hash_nodeINS_17__hash_value_typeINS_12basic_stringIcNS_11char_traitsIcEENS_9allocatorIcEEEENS_10shared_ptrI3VarEEEEPvEEEESI_, symObjAddr: 0x1016C, symBinAddr: 0x100012D20, symSize: 0x30 }
  - { offset: 0x1ED5F, size: 0x8, addend: 0x0, symName: __ZNSt3__116__do_string_hashB8ne180100IPKcEEmT_S3_, symObjAddr: 0x10548, symBinAddr: 0x1000130FC, symSize: 0x3C }
  - { offset: 0x1EDA5, size: 0x8, addend: 0x0, symName: __ZNSt3__110__loadwordB8ne180100ImEET_PKv, symObjAddr: 0x10F44, symBinAddr: 0x100013AF8, symSize: 0x20 }
  - { offset: 0x1EDE8, size: 0x8, addend: 0x0, symName: __ZNSt3__14swapB8ne180100ImEENS_9enable_ifIXaasr21is_move_constructibleIT_EE5valuesr18is_move_assignableIS2_EE5valueEvE4typeERS2_S5_, symObjAddr: 0x11100, symBinAddr: 0x100013CB4, symSize: 0x3C }
  - { offset: 0x1EE39, size: 0x8, addend: 0x0, symName: __ZNSt3__110__loadwordB8ne180100IjEET_PKv, symObjAddr: 0x11190, symBinAddr: 0x100013D44, symSize: 0x20 }
  - { offset: 0x1EE7C, size: 0x8, addend: 0x0, symName: __ZNSt3__1eqB8ne180100INS_9allocatorIcEEEEbRKNS_12basic_stringIcNS_11char_traitsIcEET_EES9_, symObjAddr: 0x11388, symBinAddr: 0x100013F3C, symSize: 0x148 }
  - { offset: 0x1EEEF, size: 0x8, addend: 0x0, symName: __ZNSt3__17launderB8ne180100IKNS_4pairIKNS_12basic_stringIcNS_11char_traitsIcEENS_9allocatorIcEEEENS_10shared_ptrI3VarEEEEEEPT_SF_, symObjAddr: 0x114D0, symBinAddr: 0x100014084, symSize: 0x24 }
  - { offset: 0x1EF26, size: 0x8, addend: 0x0, symName: __ZNSt3__19__launderB8ne180100IKNS_4pairIKNS_12basic_stringIcNS_11char_traitsIcEENS_9allocatorIcEEEENS_10shared_ptrI3VarEEEEEEPT_SF_, symObjAddr: 0x114F4, symBinAddr: 0x1000140A8, symSize: 0x14 }
  - { offset: 0x1EF5D, size: 0x8, addend: 0x0, symName: __ZNSt3__115allocate_sharedB8ne180100I3VarNS_9allocatorIS1_EEJS1_EvEENS_10shared_ptrIT_EERKT0_DpOT1_, symObjAddr: 0x11548, symBinAddr: 0x1000140FC, symSize: 0x98 }
  - { offset: 0x1F2E2, size: 0x8, addend: 0x0, symName: __ZNSt3__114__construct_atB8ne180100I3VarJS1_EPS1_EEPT_S4_DpOT0_, symObjAddr: 0x11BF0, symBinAddr: 0x1000147A4, symSize: 0x2C }
  - { offset: 0x1F335, size: 0x8, addend: 0x0, symName: __ZNSt3__112construct_atB8ne180100I3VarJS1_EPS1_EEPT_S4_DpOT0_, symObjAddr: 0x11C1C, symBinAddr: 0x1000147D0, symSize: 0x34 }
  - { offset: 0x1F388, size: 0x8, addend: 0x0, symName: __ZNSt3__112__destroy_atB8ne180100I3VarLi0EEEvPT_, symObjAddr: 0x11DB8, symBinAddr: 0x10001496C, symSize: 0x24 }
  - { offset: 0x1F429, size: 0x8, addend: 0x0, symName: __ZNSt3__116forward_as_tupleB8ne180100IJRKNS_12basic_stringIcNS_11char_traitsIcEENS_9allocatorIcEEEEEEENS_5tupleIJDpOT_EEESC_, symObjAddr: 0x12480, symBinAddr: 0x100015034, symSize: 0x2C }
  - { offset: 0x1F462, size: 0x8, addend: 0x0, symName: __ZNSt3__116forward_as_tupleB8ne180100IJEEENS_5tupleIJDpOT_EEES4_, symObjAddr: 0x124AC, symBinAddr: 0x100015060, symSize: 0x4 }
  - { offset: 0x1F486, size: 0x8, addend: 0x0, symName: __ZNSt3__116__is_hash_power2B8ne180100Em, symObjAddr: 0x126D0, symBinAddr: 0x100015284, symSize: 0x50 }
  - { offset: 0x1F4B7, size: 0x8, addend: 0x0, symName: __ZNSt3__16__math4ceilB8ne180100Ef, symObjAddr: 0x12720, symBinAddr: 0x1000152D4, symSize: 0x18 }
  - { offset: 0x1F546, size: 0x8, addend: 0x0, symName: __ZNSt3__114__construct_atB8ne180100INS_11__hash_nodeINS_17__hash_value_typeINS_12basic_stringIcNS_11char_traitsIcEENS_9allocatorIcEEEENS_10shared_ptrI3VarEEEEPvEEJDnRmEPSE_EEPT_SI_DpOT0_, symObjAddr: 0x12988, symBinAddr: 0x10001553C, symSize: 0x34 }
  - { offset: 0x1F5AC, size: 0x8, addend: 0x0, symName: __ZNSt3__112construct_atB8ne180100INS_11__hash_nodeINS_17__hash_value_typeINS_12basic_stringIcNS_11char_traitsIcEENS_9allocatorIcEEEENS_10shared_ptrI3VarEEEEPvEEJDnRmEPSE_EEPT_SI_DpOT0_, symObjAddr: 0x12C18, symBinAddr: 0x1000157CC, symSize: 0x40 }
  - { offset: 0x1F612, size: 0x8, addend: 0x0, symName: __ZNSt3__114__construct_atB8ne180100INS_4pairIKNS_12basic_stringIcNS_11char_traitsIcEENS_9allocatorIcEEEENS_10shared_ptrI3VarEEEEJRKNS_21piecewise_construct_tENS_5tupleIJRS8_EEENSG_IJEEEEPSC_EEPT_SM_DpOT0_, symObjAddr: 0x12D2C, symBinAddr: 0x1000158E0, symSize: 0x3C }
  - { offset: 0x1F68B, size: 0x8, addend: 0x0, symName: __ZNSt3__112construct_atB8ne180100INS_4pairIKNS_12basic_stringIcNS_11char_traitsIcEENS_9allocatorIcEEEENS_10shared_ptrI3VarEEEEJRKNS_21piecewise_construct_tENS_5tupleIJRS8_EEENSG_IJEEEEPSC_EEPT_SM_DpOT0_, symObjAddr: 0x12D68, symBinAddr: 0x10001591C, symSize: 0x48 }
  - { offset: 0x1F70F, size: 0x8, addend: 0x0, symName: __ZNSt3__13getB8ne180100ILm0EJRKNS_12basic_stringIcNS_11char_traitsIcEENS_9allocatorIcEEEEEEERNS_13tuple_elementIXT_ENS_5tupleIJDpT0_EEEE4typeERSD_, symObjAddr: 0x12E78, symBinAddr: 0x100015A2C, symSize: 0x24 }
  - { offset: 0x1F752, size: 0x8, addend: 0x0, symName: __ZNSt3__116__next_hash_pow2B8ne180100Em, symObjAddr: 0x13358, symBinAddr: 0x100015F0C, symSize: 0x6C }
  - { offset: 0x1F77E, size: 0x8, addend: 0x0, symName: __ZNSt3__112__libcpp_clzB8ne180100Em, symObjAddr: 0x134E8, symBinAddr: 0x10001609C, symSize: 0x1C }
  - { offset: 0x1F801, size: 0x8, addend: 0x0, symName: __ZNSt3__14swapB8ne180100IP3VarEENS_9enable_ifIXaasr21is_move_constructibleIT_EE5valuesr18is_move_assignableIS4_EE5valueEvE4typeERS4_S7_, symObjAddr: 0x13824, symBinAddr: 0x1000163D8, symSize: 0x3C }
  - { offset: 0x1F852, size: 0x8, addend: 0x0, symName: __ZNSt3__14swapB8ne180100IPNS_19__shared_weak_countEEENS_9enable_ifIXaasr21is_move_constructibleIT_EE5valuesr18is_move_assignableIS4_EE5valueEvE4typeERS4_S7_, symObjAddr: 0x13860, symBinAddr: 0x100016414, symSize: 0x3C }
  - { offset: 0x1F8A3, size: 0x8, addend: 0x0, symName: __ZNSt3__134__libcpp_atomic_refcount_incrementB8ne180100IlEET_RS1_, symObjAddr: 0x13988, symBinAddr: 0x10001653C, symSize: 0x30 }
  - { offset: 0x1F8D8, size: 0x8, addend: 0x0, symName: __ZNSt3__17find_ifB8ne180100INS_16reverse_iteratorINS_11__wrap_iterIPK8VarTableEEEEZNK11SymbolTable8GetScopeENS_12basic_stringIcNS_11char_traitsIcEENS_9allocatorIcEEEEEUlRT_E_EESF_SF_SF_T0_, symObjAddr: 0x13F08, symBinAddr: 0x100016ABC, symSize: 0x84 }
  - { offset: 0x1F932, size: 0x8, addend: 0x0, symName: __ZNSt3__1neB8ne180100INS_11__wrap_iterIPK8VarTableEES5_EEbRKNS_16reverse_iteratorIT_EERKNS6_IT0_EE, symObjAddr: 0x14014, symBinAddr: 0x100016BC8, symSize: 0x54 }
  - { offset: 0x1F97E, size: 0x8, addend: 0x0, symName: __ZNSt3__1neB8ne180100IPK8VarTableEEbRKNS_11__wrap_iterIT_EES8_, symObjAddr: 0x1414C, symBinAddr: 0x100016D00, symSize: 0x34 }
  - { offset: 0x1F9C1, size: 0x8, addend: 0x0, symName: __ZNSt3__1eqB8ne180100IPK8VarTableEEbRKNS_11__wrap_iterIT_EES8_, symObjAddr: 0x141A0, symBinAddr: 0x100016D54, symSize: 0x48 }
  - { offset: 0x1FA04, size: 0x8, addend: 0x0, symName: __ZNSt3__14prevB8ne180100INS_11__wrap_iterIPK8VarTableEELi0EEET_S6_NS_15iterator_traitsIS6_E15difference_typeE, symObjAddr: 0x14378, symBinAddr: 0x100016F2C, symSize: 0x44 }
  - { offset: 0x1FA4D, size: 0x8, addend: 0x0, symName: __ZNSt3__19__advanceB8ne180100INS_11__wrap_iterIPK8VarTableEEEEvRT_NS_15iterator_traitsIS6_E15difference_typeENS_26random_access_iterator_tagE, symObjAddr: 0x1441C, symBinAddr: 0x100016FD0, symSize: 0x2C }
  - { offset: 0x1FA96, size: 0x8, addend: 0x0, symName: __ZNSt3__112__to_addressB8ne180100IK8VarTableEEPT_S4_, symObjAddr: 0x14478, symBinAddr: 0x10001702C, symSize: 0x14 }
  - { offset: 0x1FB31, size: 0x8, addend: 0x0, symName: __ZNSt3__14swapB8ne180100IP7ASTNodeEENS_9enable_ifIXaasr21is_move_constructibleIT_EE5valuesr18is_move_assignableIS4_EE5valueEvE4typeERS4_S7_, symObjAddr: 0x14708, symBinAddr: 0x1000172BC, symSize: 0x3C }
  - { offset: 0x1FB82, size: 0x8, addend: 0x0, symName: __ZNSt3__1neB8ne180100IPNS_10shared_ptrI7ASTNodeEEEEbRKNS_11__wrap_iterIT_EES9_, symObjAddr: 0x15070, symBinAddr: 0x100017C24, symSize: 0x34 }
  - { offset: 0x1FBC5, size: 0x8, addend: 0x0, symName: __ZNSt3__1eqB8ne180100IPNS_10shared_ptrI7ASTNodeEEEEbRKNS_11__wrap_iterIT_EES9_, symObjAddr: 0x15304, symBinAddr: 0x100017EB8, symSize: 0x48 }
  - { offset: 0x1FC08, size: 0x8, addend: 0x0, symName: __ZNSt3__116__pad_and_outputB8ne180100IcNS_11char_traitsIcEEEENS_19ostreambuf_iteratorIT_T0_EES6_PKS4_S8_S8_RNS_8ios_baseES4_, symObjAddr: 0x15B04, symBinAddr: 0x1000186B8, symSize: 0x240 }
  - { offset: 0x1FCD7, size: 0x8, addend: 0x0, symName: __ZNSt3__19use_facetB8ne180100INS_5ctypeIcEEEERKT_RKNS_6localeE, symObjAddr: 0x16020, symBinAddr: 0x100018BD4, symSize: 0x2C }
  - { offset: 0x21842, size: 0x8, addend: 0x0, symName: __ZSt28__throw_bad_array_new_lengthB8ne180100v, symObjAddr: 0x2468, symBinAddr: 0x10000501C, symSize: 0x34 }
  - { offset: 0x225DE, size: 0x8, addend: 0x0, symName: __ZN6emplex3DFA5tableE, symObjAddr: 0x17134, symBinAddr: 0x10001A46C, symSize: 0x0 }
  - { offset: 0x229F1, size: 0x8, addend: 0x0, symName: __ZN6emplex3DFA7stop_idE, symObjAddr: 0x1BD34, symBinAddr: 0x10001F06C, symSize: 0x0 }
  - { offset: 0x23F2C, size: 0x8, addend: 0x0, symName: __ZNSt3__16vectorIN6emplex5TokenENS_9allocatorIS2_EEE26__swap_out_circular_bufferERNS_14__split_bufferIS2_RS4_EE, symObjAddr: 0x4C8C, symBinAddr: 0x100007840, symSize: 0x110 }
  - { offset: 0x23FD7, size: 0x8, addend: 0x0, symName: __ZNSt3__16vectorI8VarTableNS_9allocatorIS1_EEE26__swap_out_circular_bufferERNS_14__split_bufferIS1_RS3_EE, symObjAddr: 0x9464, symBinAddr: 0x10000C018, symSize: 0x110 }
  - { offset: 0x24073, size: 0x8, addend: 0x0, symName: __ZNSt3__16vectorINS_10shared_ptrI7ASTNodeEENS_9allocatorIS3_EEE26__swap_out_circular_bufferERNS_14__split_bufferIS3_RS5_EE, symObjAddr: 0xB6C4, symBinAddr: 0x10000E278, symSize: 0x110 }
  - { offset: 0x2410F, size: 0x8, addend: 0x0, symName: __ZNSt3__16vectorINS_10shared_ptrI3VarEENS_9allocatorIS3_EEE26__swap_out_circular_bufferERNS_14__split_bufferIS3_RS5_EE, symObjAddr: 0xEE70, symBinAddr: 0x100011A24, symSize: 0x110 }
  - { offset: 0x24300, size: 0x8, addend: 0x0, symName: __ZN6LoggerC1Ev, symObjAddr: 0x0, symBinAddr: 0x100002BB4, symSize: 0x2C }
  - { offset: 0x2432A, size: 0x8, addend: 0x0, symName: __ZN6LoggerD1Ev, symObjAddr: 0x2C, symBinAddr: 0x100002BE0, symSize: 0x2C }
  - { offset: 0x24354, size: 0x8, addend: 0x0, symName: _main, symObjAddr: 0x58, symBinAddr: 0x100002C0C, symSize: 0x380 }
  - { offset: 0x243C9, size: 0x8, addend: 0x0, symName: __ZNSt3__113basic_ostreamIcNS_11char_traitsIcEEElsB8ne180100EPFRS3_S4_E, symObjAddr: 0x420, symBinAddr: 0x100002FD4, symSize: 0x2C }
  - { offset: 0x24402, size: 0x8, addend: 0x0, symName: __ZNSt3__112basic_stringIcNS_11char_traitsIcEENS_9allocatorIcEEEC1B8ne180100ILi0EEEPKc, symObjAddr: 0x500, symBinAddr: 0x1000030B4, symSize: 0x34 }
  - { offset: 0x24441, size: 0x8, addend: 0x0, symName: __ZNSt3__114basic_ifstreamIcNS_11char_traitsIcEEEC1ERKNS_12basic_stringIcS2_NS_9allocatorIcEEEEj, symObjAddr: 0x534, symBinAddr: 0x1000030E8, symSize: 0x164 }
  - { offset: 0x2448B, size: 0x8, addend: 0x0, symName: __ZNKSt3__19basic_iosIcNS_11char_traitsIcEEE4failB8ne180100Ev, symObjAddr: 0x698, symBinAddr: 0x10000324C, symSize: 0x28 }
  - { offset: 0x244B1, size: 0x8, addend: 0x0, symName: __ZN8CompilerC1ERNSt3__114basic_ifstreamIcNS0_11char_traitsIcEEEE, symObjAddr: 0x70C, symBinAddr: 0x1000032C0, symSize: 0x34 }
  - { offset: 0x244E9, size: 0x8, addend: 0x0, symName: __ZN8Compiler5parseEv, symObjAddr: 0x740, symBinAddr: 0x1000032F4, symSize: 0x8C }
  - { offset: 0x2450F, size: 0x8, addend: 0x0, symName: __ZN8Compiler7executeEv, symObjAddr: 0x7CC, symBinAddr: 0x100003380, symSize: 0x38 }
  - { offset: 0x24535, size: 0x8, addend: 0x0, symName: __ZN8CompilerD1Ev, symObjAddr: 0x814, symBinAddr: 0x1000033C8, symSize: 0x2C }
  - { offset: 0x24566, size: 0x8, addend: 0x0, symName: __ZNSt3__114basic_ifstreamIcNS_11char_traitsIcEEED1Ev, symObjAddr: 0x840, symBinAddr: 0x1000033F4, symSize: 0x40 }
  - { offset: 0x24593, size: 0x8, addend: 0x0, symName: __ZN6LoggerC2Ev, symObjAddr: 0x880, symBinAddr: 0x100003434, symSize: 0x48 }
  - { offset: 0x245BD, size: 0x8, addend: 0x0, symName: __ZNSt3__114basic_ofstreamIcNS_11char_traitsIcEEEC1EPKcj, symObjAddr: 0x8C8, symBinAddr: 0x10000347C, symSize: 0x164 }
  - { offset: 0x24607, size: 0x8, addend: 0x0, symName: __ZNSt3__19basic_iosIcNS_11char_traitsIcEEEC2B8ne180100Ev, symObjAddr: 0xA2C, symBinAddr: 0x1000035E0, symSize: 0x3C }
  - { offset: 0x24631, size: 0x8, addend: 0x0, symName: __ZNSt3__113basic_ostreamIcNS_11char_traitsIcEEEC2B8ne180100EPNS_15basic_streambufIcS2_EE, symObjAddr: 0xA68, symBinAddr: 0x10000361C, symSize: 0x60 }
  - { offset: 0x24676, size: 0x8, addend: 0x0, symName: __ZNSt3__19basic_iosIcNS_11char_traitsIcEEE8setstateB8ne180100Ej, symObjAddr: 0xAC8, symBinAddr: 0x10000367C, symSize: 0x2C }
  - { offset: 0x246AB, size: 0x8, addend: 0x0, symName: __ZNSt3__18ios_baseC2B8ne180100Ev, symObjAddr: 0xAF4, symBinAddr: 0x1000036A8, symSize: 0x24 }
  - { offset: 0x246D5, size: 0x8, addend: 0x0, symName: __ZNSt3__19basic_iosIcNS_11char_traitsIcEEE4initB8ne180100EPNS_15basic_streambufIcS2_EE, symObjAddr: 0xB18, symBinAddr: 0x1000036CC, symSize: 0x44 }
  - { offset: 0x2470C, size: 0x8, addend: 0x0, symName: __ZNSt3__111char_traitsIcE3eofB8ne180100Ev, symObjAddr: 0xB5C, symBinAddr: 0x100003710, symSize: 0x8 }
  - { offset: 0x24720, size: 0x8, addend: 0x0, symName: __ZNSt3__18ios_base8setstateB8ne180100Ej, symObjAddr: 0xB64, symBinAddr: 0x100003718, symSize: 0x34 }
  - { offset: 0x24757, size: 0x8, addend: 0x0, symName: __ZN6LoggerD2Ev, symObjAddr: 0xB98, symBinAddr: 0x10000374C, symSize: 0x6C }
  - { offset: 0x24781, size: 0x8, addend: 0x0, symName: __ZNKSt3__114basic_ofstreamIcNS_11char_traitsIcEEE7is_openEv, symObjAddr: 0xC04, symBinAddr: 0x1000037B8, symSize: 0x2C }
  - { offset: 0x247A9, size: 0x8, addend: 0x0, symName: __ZNSt3__114basic_ofstreamIcNS_11char_traitsIcEEE5closeEv, symObjAddr: 0xC30, symBinAddr: 0x1000037E4, symSize: 0x58 }
  - { offset: 0x247D6, size: 0x8, addend: 0x0, symName: __ZNSt3__114basic_ofstreamIcNS_11char_traitsIcEEED1Ev, symObjAddr: 0xC88, symBinAddr: 0x10000383C, symSize: 0x40 }
  - { offset: 0x24803, size: 0x8, addend: 0x0, symName: __ZNKSt3__113basic_filebufIcNS_11char_traitsIcEEE7is_openEv, symObjAddr: 0xCC8, symBinAddr: 0x10000387C, symSize: 0x24 }
  - { offset: 0x2482B, size: 0x8, addend: 0x0, symName: __ZNSt3__114basic_ofstreamIcNS_11char_traitsIcEEED2Ev, symObjAddr: 0xCEC, symBinAddr: 0x1000038A0, symSize: 0x64 }
  - { offset: 0x24865, size: 0x8, addend: 0x0, symName: __ZTv0_n24_NSt3__114basic_ofstreamIcNS_11char_traitsIcEEED1Ev, symObjAddr: 0xD50, symBinAddr: 0x100003904, symSize: 0x28 }
  - { offset: 0x2487C, size: 0x8, addend: 0x0, symName: __ZNKSt3__112basic_stringIcNS_11char_traitsIcEENS_9allocatorIcEEEcvNS_17basic_string_viewIcS2_EEB8ne180100Ev, symObjAddr: 0xE28, symBinAddr: 0x1000039DC, symSize: 0x50 }
  - { offset: 0x248A2, size: 0x8, addend: 0x0, symName: __ZNSt3__117basic_string_viewIcNS_11char_traitsIcEEEC1B8ne180100EPKc, symObjAddr: 0xE78, symBinAddr: 0x100003A2C, symSize: 0x34 }
  - { offset: 0x248DB, size: 0x8, addend: 0x0, symName: __ZNKSt3__117basic_string_viewIcNS_11char_traitsIcEEE4sizeB8ne180100Ev, symObjAddr: 0xEAC, symBinAddr: 0x100003A60, symSize: 0x18 }
  - { offset: 0x24901, size: 0x8, addend: 0x0, symName: __ZNKSt3__117basic_string_viewIcNS_11char_traitsIcEEE7compareES3_, symObjAddr: 0xEC4, symBinAddr: 0x100003A78, symSize: 0x13C }
  - { offset: 0x24954, size: 0x8, addend: 0x0, symName: __ZNSt3__111char_traitsIcE7compareB8ne180100EPKcS3_m, symObjAddr: 0x102C, symBinAddr: 0x100003BE0, symSize: 0x34 }
  - { offset: 0x24993, size: 0x8, addend: 0x0, symName: __ZNKSt3__117basic_string_viewIcNS_11char_traitsIcEEE4dataB8ne180100Ev, symObjAddr: 0x1060, symBinAddr: 0x100003C14, symSize: 0x18 }
  - { offset: 0x249C4, size: 0x8, addend: 0x0, symName: __ZNKSt3__16__lessIvvEclB8ne180100ImmEEbRKT_RKT0_, symObjAddr: 0x10CC, symBinAddr: 0x100003C80, symSize: 0x34 }
  - { offset: 0x24A18, size: 0x8, addend: 0x0, symName: __ZNKSt3__112basic_stringIcNS_11char_traitsIcEENS_9allocatorIcEEE4dataB8ne180100Ev, symObjAddr: 0x1100, symBinAddr: 0x100003CB4, symSize: 0x28 }
  - { offset: 0x24A3E, size: 0x8, addend: 0x0, symName: __ZNKSt3__112basic_stringIcNS_11char_traitsIcEENS_9allocatorIcEEE4sizeB8ne180100Ev, symObjAddr: 0x1128, symBinAddr: 0x100003CDC, symSize: 0x54 }
  - { offset: 0x24A64, size: 0x8, addend: 0x0, symName: __ZNSt3__117basic_string_viewIcNS_11char_traitsIcEEEC1B8ne180100EPKcm, symObjAddr: 0x117C, symBinAddr: 0x100003D30, symSize: 0x3C }
  - { offset: 0x24AAC, size: 0x8, addend: 0x0, symName: __ZNKSt3__112basic_stringIcNS_11char_traitsIcEENS_9allocatorIcEEE13__get_pointerB8ne180100Ev, symObjAddr: 0x11CC, symBinAddr: 0x100003D80, symSize: 0x54 }
  - { offset: 0x24AD2, size: 0x8, addend: 0x0, symName: __ZNKSt3__112basic_stringIcNS_11char_traitsIcEENS_9allocatorIcEEE9__is_longB8ne180100Ev, symObjAddr: 0x1220, symBinAddr: 0x100003DD4, symSize: 0x38 }
  - { offset: 0x24AF8, size: 0x8, addend: 0x0, symName: __ZNKSt3__112basic_stringIcNS_11char_traitsIcEENS_9allocatorIcEEE18__get_long_pointerB8ne180100Ev, symObjAddr: 0x1258, symBinAddr: 0x100003E0C, symSize: 0x28 }
  - { offset: 0x24B1E, size: 0x8, addend: 0x0, symName: __ZNKSt3__112basic_stringIcNS_11char_traitsIcEENS_9allocatorIcEEE19__get_short_pointerB8ne180100Ev, symObjAddr: 0x1280, symBinAddr: 0x100003E34, symSize: 0x28 }
  - { offset: 0x24B44, size: 0x8, addend: 0x0, symName: __ZNKSt3__117__compressed_pairINS_12basic_stringIcNS_11char_traitsIcEENS_9allocatorIcEEE5__repES5_E5firstB8ne180100Ev, symObjAddr: 0x12A8, symBinAddr: 0x100003E5C, symSize: 0x24 }
  - { offset: 0x24B6A, size: 0x8, addend: 0x0, symName: __ZNKSt3__122__compressed_pair_elemINS_12basic_stringIcNS_11char_traitsIcEENS_9allocatorIcEEE5__repELi0ELb0EE5__getB8ne180100Ev, symObjAddr: 0x12CC, symBinAddr: 0x100003E80, symSize: 0x14 }
  - { offset: 0x24B90, size: 0x8, addend: 0x0, symName: __ZNSt3__114pointer_traitsIPKcE10pointer_toB8ne180100ERS1_, symObjAddr: 0x12E0, symBinAddr: 0x100003E94, symSize: 0x14 }
  - { offset: 0x24BB3, size: 0x8, addend: 0x0, symName: __ZNKSt3__112basic_stringIcNS_11char_traitsIcEENS_9allocatorIcEEE15__get_long_sizeB8ne180100Ev, symObjAddr: 0x12F4, symBinAddr: 0x100003EA8, symSize: 0x28 }
  - { offset: 0x24BD9, size: 0x8, addend: 0x0, symName: __ZNKSt3__112basic_stringIcNS_11char_traitsIcEENS_9allocatorIcEEE16__get_short_sizeB8ne180100Ev, symObjAddr: 0x131C, symBinAddr: 0x100003ED0, symSize: 0x34 }
  - { offset: 0x24BFF, size: 0x8, addend: 0x0, symName: __ZNSt3__117basic_string_viewIcNS_11char_traitsIcEEEC2B8ne180100EPKcm, symObjAddr: 0x1350, symBinAddr: 0x100003F04, symSize: 0x2C }
  - { offset: 0x24C47, size: 0x8, addend: 0x0, symName: __ZNSt3__117basic_string_viewIcNS_11char_traitsIcEEEC2B8ne180100EPKc, symObjAddr: 0x137C, symBinAddr: 0x100003F30, symSize: 0x44 }
  - { offset: 0x24C80, size: 0x8, addend: 0x0, symName: __ZNSt3__111char_traitsIcE6lengthB8ne180100EPKc, symObjAddr: 0x13E4, symBinAddr: 0x100003F98, symSize: 0x34 }
  - { offset: 0x24CA3, size: 0x8, addend: 0x0, symName: __ZNSt3__112basic_stringIcNS_11char_traitsIcEENS_9allocatorIcEEEC2B8ne180100ILi0EEEPKc, symObjAddr: 0x143C, symBinAddr: 0x100003FF0, symSize: 0x58 }
  - { offset: 0x24CE8, size: 0x8, addend: 0x0, symName: __ZNSt3__117__compressed_pairINS_12basic_stringIcNS_11char_traitsIcEENS_9allocatorIcEEE5__repES5_EC1B8ne180100INS_18__default_init_tagESA_EEOT_OT0_, symObjAddr: 0x1494, symBinAddr: 0x100004048, symSize: 0x3C }
  - { offset: 0x24D40, size: 0x8, addend: 0x0, symName: __ZNSt3__117__compressed_pairINS_12basic_stringIcNS_11char_traitsIcEENS_9allocatorIcEEE5__repES5_EC2B8ne180100INS_18__default_init_tagESA_EEOT_OT0_, symObjAddr: 0x14D0, symBinAddr: 0x100004084, symSize: 0x3C }
  - { offset: 0x24D98, size: 0x8, addend: 0x0, symName: __ZNSt3__122__compressed_pair_elemINS_12basic_stringIcNS_11char_traitsIcEENS_9allocatorIcEEE5__repELi0ELb0EEC2B8ne180100ENS_18__default_init_tagE, symObjAddr: 0x150C, symBinAddr: 0x1000040C0, symSize: 0x14 }
  - { offset: 0x24DCC, size: 0x8, addend: 0x0, symName: __ZNSt3__122__compressed_pair_elemINS_9allocatorIcEELi1ELb1EEC2B8ne180100ENS_18__default_init_tagE, symObjAddr: 0x1520, symBinAddr: 0x1000040D4, symSize: 0x2C }
  - { offset: 0x24E00, size: 0x8, addend: 0x0, symName: __ZNSt3__19allocatorIcEC2B8ne180100Ev, symObjAddr: 0x154C, symBinAddr: 0x100004100, symSize: 0x2C }
  - { offset: 0x24E2A, size: 0x8, addend: 0x0, symName: __ZNSt3__116__non_trivial_ifILb1ENS_9allocatorIcEEEC2B8ne180100Ev, symObjAddr: 0x1578, symBinAddr: 0x10000412C, symSize: 0x14 }
  - { offset: 0x24E54, size: 0x8, addend: 0x0, symName: __ZN8CompilerC2ERNSt3__114basic_ifstreamIcNS0_11char_traitsIcEEEE, symObjAddr: 0x158C, symBinAddr: 0x100004140, symSize: 0x13C }
  - { offset: 0x24E8C, size: 0x8, addend: 0x0, symName: __ZN6emplex5LexerC1Ev, symObjAddr: 0x16C8, symBinAddr: 0x10000427C, symSize: 0x2C }
  - { offset: 0x24EB8, size: 0x8, addend: 0x0, symName: __ZNSt3__16vectorIN6emplex5TokenENS_9allocatorIS2_EEEC1B8ne180100Ev, symObjAddr: 0x16F4, symBinAddr: 0x1000042A8, symSize: 0x2C }
  - { offset: 0x24EE2, size: 0x8, addend: 0x0, symName: __ZN11SymbolTableC1Ev, symObjAddr: 0x1720, symBinAddr: 0x1000042D4, symSize: 0x2C }
  - { offset: 0x24F0E, size: 0x8, addend: 0x0, symName: __ZN7ASTNodeC1ENS_4TypeE, symObjAddr: 0x178C, symBinAddr: 0x100004340, symSize: 0x34 }
  - { offset: 0x24F46, size: 0x8, addend: 0x0, symName: __ZN7ASTNodeD1Ev, symObjAddr: 0x17C0, symBinAddr: 0x100004374, symSize: 0x2C }
  - { offset: 0x24F72, size: 0x8, addend: 0x0, symName: __ZN6emplex5Lexer8TokenizeERNSt3__113basic_istreamIcNS1_11char_traitsIcEEEE, symObjAddr: 0x17EC, symBinAddr: 0x1000043A0, symSize: 0xAC }
  - { offset: 0x24FA7, size: 0x8, addend: 0x0, symName: __ZNSt3__16vectorIN6emplex5TokenENS_9allocatorIS2_EEEaSB8ne180100EOS5_, symObjAddr: 0x1898, symBinAddr: 0x10000444C, symSize: 0x34 }
  - { offset: 0x24FDE, size: 0x8, addend: 0x0, symName: __ZNSt3__16vectorIN6emplex5TokenENS_9allocatorIS2_EEED1B8ne180100Ev, symObjAddr: 0x18CC, symBinAddr: 0x100004480, symSize: 0x2C }
  - { offset: 0x25022, size: 0x8, addend: 0x0, symName: __ZN6LoggerlsIA6_cEERS_RKT_, symObjAddr: 0x18F8, symBinAddr: 0x1000044AC, symSize: 0x12C }
  - { offset: 0x25074, size: 0x8, addend: 0x0, symName: __ZNSt3__110shared_ptrI7ASTNodeED1B8ne180100Ev, symObjAddr: 0x1A24, symBinAddr: 0x1000045D8, symSize: 0x2C }
  - { offset: 0x2509E, size: 0x8, addend: 0x0, symName: __ZN11SymbolTableD1Ev, symObjAddr: 0x1A50, symBinAddr: 0x100004604, symSize: 0x2C }
  - { offset: 0x250CA, size: 0x8, addend: 0x0, symName: __ZN6emplex5LexerD1Ev, symObjAddr: 0x1A7C, symBinAddr: 0x100004630, symSize: 0x2C }
  - { offset: 0x250F6, size: 0x8, addend: 0x0, symName: __ZN6emplex5LexerC2Ev, symObjAddr: 0x1AA8, symBinAddr: 0x10000465C, symSize: 0x48 }
  - { offset: 0x25122, size: 0x8, addend: 0x0, symName: __ZNSt3__112basic_stringIcNS_11char_traitsIcEENS_9allocatorIcEEEC1B8ne180100Ev, symObjAddr: 0x1AF0, symBinAddr: 0x1000046A4, symSize: 0x2C }
  - { offset: 0x2514C, size: 0x8, addend: 0x0, symName: __ZNSt3__112basic_stringIcNS_11char_traitsIcEENS_9allocatorIcEEEC2B8ne180100Ev, symObjAddr: 0x1B1C, symBinAddr: 0x1000046D0, symSize: 0x48 }
  - { offset: 0x2517C, size: 0x8, addend: 0x0, symName: __ZNSt3__117__compressed_pairINS_12basic_stringIcNS_11char_traitsIcEENS_9allocatorIcEEE5__repES5_EC1B8ne180100INS_16__value_init_tagENS_18__default_init_tagEEEOT_OT0_, symObjAddr: 0x1B64, symBinAddr: 0x100004718, symSize: 0x3C }
  - { offset: 0x251D4, size: 0x8, addend: 0x0, symName: __ZNKSt3__112basic_stringIcNS_11char_traitsIcEENS_9allocatorIcEEE14__annotate_newB8ne180100Em, symObjAddr: 0x1BA0, symBinAddr: 0x100004754, symSize: 0x14 }
  - { offset: 0x25209, size: 0x8, addend: 0x0, symName: __ZNSt3__117__compressed_pairINS_12basic_stringIcNS_11char_traitsIcEENS_9allocatorIcEEE5__repES5_EC2B8ne180100INS_16__value_init_tagENS_18__default_init_tagEEEOT_OT0_, symObjAddr: 0x1BB4, symBinAddr: 0x100004768, symSize: 0x3C }
  - { offset: 0x25261, size: 0x8, addend: 0x0, symName: __ZNSt3__122__compressed_pair_elemINS_12basic_stringIcNS_11char_traitsIcEENS_9allocatorIcEEE5__repELi0ELb0EEC2B8ne180100ENS_16__value_init_tagE, symObjAddr: 0x1BF0, symBinAddr: 0x1000047A4, symSize: 0x20 }
  - { offset: 0x25295, size: 0x8, addend: 0x0, symName: __ZNSt3__16vectorIN6emplex5TokenENS_9allocatorIS2_EEEC2B8ne180100Ev, symObjAddr: 0x1C10, symBinAddr: 0x1000047C4, symSize: 0x4C }
  - { offset: 0x252C5, size: 0x8, addend: 0x0, symName: __ZNSt3__117__compressed_pairIPN6emplex5TokenENS_9allocatorIS2_EEEC1B8ne180100IDnNS_18__default_init_tagEEEOT_OT0_, symObjAddr: 0x1C5C, symBinAddr: 0x100004810, symSize: 0x3C }
  - { offset: 0x2531D, size: 0x8, addend: 0x0, symName: __ZNSt3__117__compressed_pairIPN6emplex5TokenENS_9allocatorIS2_EEEC2B8ne180100IDnNS_18__default_init_tagEEEOT_OT0_, symObjAddr: 0x1C98, symBinAddr: 0x10000484C, symSize: 0x40 }
  - { offset: 0x25375, size: 0x8, addend: 0x0, symName: __ZNSt3__122__compressed_pair_elemIPN6emplex5TokenELi0ELb0EEC2B8ne180100IDnvEEOT_, symObjAddr: 0x1CD8, symBinAddr: 0x10000488C, symSize: 0x1C }
  - { offset: 0x253B7, size: 0x8, addend: 0x0, symName: __ZNSt3__122__compressed_pair_elemINS_9allocatorIN6emplex5TokenEEELi1ELb1EEC2B8ne180100ENS_18__default_init_tagE, symObjAddr: 0x1CF4, symBinAddr: 0x1000048A8, symSize: 0x2C }
  - { offset: 0x253EB, size: 0x8, addend: 0x0, symName: __ZNSt3__19allocatorIN6emplex5TokenEEC2B8ne180100Ev, symObjAddr: 0x1D20, symBinAddr: 0x1000048D4, symSize: 0x2C }
  - { offset: 0x25415, size: 0x8, addend: 0x0, symName: __ZNSt3__116__non_trivial_ifILb1ENS_9allocatorIN6emplex5TokenEEEEC2B8ne180100Ev, symObjAddr: 0x1D4C, symBinAddr: 0x100004900, symSize: 0x14 }
  - { offset: 0x2543F, size: 0x8, addend: 0x0, symName: __ZN11SymbolTableC2Ev, symObjAddr: 0x1D60, symBinAddr: 0x100004914, symSize: 0x38 }
  - { offset: 0x2546B, size: 0x8, addend: 0x0, symName: __ZNSt3__16vectorI8VarTableNS_9allocatorIS1_EEEC1B8ne180100Ev, symObjAddr: 0x1D98, symBinAddr: 0x10000494C, symSize: 0x2C }
  - { offset: 0x25495, size: 0x8, addend: 0x0, symName: __ZNSt3__16vectorINS_10shared_ptrI3VarEENS_9allocatorIS3_EEEC1B8ne180100Ev, symObjAddr: 0x1DC4, symBinAddr: 0x100004978, symSize: 0x2C }
  - { offset: 0x254BF, size: 0x8, addend: 0x0, symName: __ZNSt3__16vectorI8VarTableNS_9allocatorIS1_EEEC2B8ne180100Ev, symObjAddr: 0x1DF0, symBinAddr: 0x1000049A4, symSize: 0x4C }
  - { offset: 0x254E9, size: 0x8, addend: 0x0, symName: __ZNSt3__117__compressed_pairIP8VarTableNS_9allocatorIS1_EEEC1B8ne180100IDnNS_18__default_init_tagEEEOT_OT0_, symObjAddr: 0x1E3C, symBinAddr: 0x1000049F0, symSize: 0x3C }
  - { offset: 0x25541, size: 0x8, addend: 0x0, symName: __ZNSt3__117__compressed_pairIP8VarTableNS_9allocatorIS1_EEEC2B8ne180100IDnNS_18__default_init_tagEEEOT_OT0_, symObjAddr: 0x1E78, symBinAddr: 0x100004A2C, symSize: 0x40 }
  - { offset: 0x25599, size: 0x8, addend: 0x0, symName: __ZNSt3__122__compressed_pair_elemIP8VarTableLi0ELb0EEC2B8ne180100IDnvEEOT_, symObjAddr: 0x1EB8, symBinAddr: 0x100004A6C, symSize: 0x1C }
  - { offset: 0x255DB, size: 0x8, addend: 0x0, symName: __ZNSt3__122__compressed_pair_elemINS_9allocatorI8VarTableEELi1ELb1EEC2B8ne180100ENS_18__default_init_tagE, symObjAddr: 0x1ED4, symBinAddr: 0x100004A88, symSize: 0x2C }
  - { offset: 0x2560F, size: 0x8, addend: 0x0, symName: __ZNSt3__19allocatorI8VarTableEC2B8ne180100Ev, symObjAddr: 0x1F00, symBinAddr: 0x100004AB4, symSize: 0x2C }
  - { offset: 0x25639, size: 0x8, addend: 0x0, symName: __ZNSt3__116__non_trivial_ifILb1ENS_9allocatorI8VarTableEEEC2B8ne180100Ev, symObjAddr: 0x1F2C, symBinAddr: 0x100004AE0, symSize: 0x14 }
  - { offset: 0x25663, size: 0x8, addend: 0x0, symName: __ZNSt3__16vectorINS_10shared_ptrI3VarEENS_9allocatorIS3_EEEC2B8ne180100Ev, symObjAddr: 0x1F40, symBinAddr: 0x100004AF4, symSize: 0x4C }
  - { offset: 0x2568D, size: 0x8, addend: 0x0, symName: __ZNSt3__117__compressed_pairIPNS_10shared_ptrI3VarEENS_9allocatorIS3_EEEC1B8ne180100IDnNS_18__default_init_tagEEEOT_OT0_, symObjAddr: 0x1F8C, symBinAddr: 0x100004B40, symSize: 0x3C }
  - { offset: 0x256E5, size: 0x8, addend: 0x0, symName: __ZNSt3__117__compressed_pairIPNS_10shared_ptrI3VarEENS_9allocatorIS3_EEEC2B8ne180100IDnNS_18__default_init_tagEEEOT_OT0_, symObjAddr: 0x1FC8, symBinAddr: 0x100004B7C, symSize: 0x40 }
  - { offset: 0x2573D, size: 0x8, addend: 0x0, symName: __ZNSt3__122__compressed_pair_elemIPNS_10shared_ptrI3VarEELi0ELb0EEC2B8ne180100IDnvEEOT_, symObjAddr: 0x2008, symBinAddr: 0x100004BBC, symSize: 0x1C }
  - { offset: 0x2577F, size: 0x8, addend: 0x0, symName: __ZNSt3__122__compressed_pair_elemINS_9allocatorINS_10shared_ptrI3VarEEEELi1ELb1EEC2B8ne180100ENS_18__default_init_tagE, symObjAddr: 0x2024, symBinAddr: 0x100004BD8, symSize: 0x2C }
  - { offset: 0x257B3, size: 0x8, addend: 0x0, symName: __ZNSt3__19allocatorINS_10shared_ptrI3VarEEEC2B8ne180100Ev, symObjAddr: 0x2050, symBinAddr: 0x100004C04, symSize: 0x2C }
  - { offset: 0x257DD, size: 0x8, addend: 0x0, symName: __ZNSt3__116__non_trivial_ifILb1ENS_9allocatorINS_10shared_ptrI3VarEEEEEC2B8ne180100Ev, symObjAddr: 0x207C, symBinAddr: 0x100004C30, symSize: 0x14 }
  - { offset: 0x25807, size: 0x8, addend: 0x0, symName: __ZNSt3__19allocatorI7ASTNodeEC1B8ne180100Ev, symObjAddr: 0x2128, symBinAddr: 0x100004CDC, symSize: 0x2C }
  - { offset: 0x25863, size: 0x8, addend: 0x0, symName: __ZNSt3__118__allocation_guardINS_9allocatorINS_20__shared_ptr_emplaceI7ASTNodeNS1_IS3_EEEEEEEC1B8ne180100IS4_EET_m, symObjAddr: 0x2154, symBinAddr: 0x100004D08, symSize: 0x34 }
  - { offset: 0x258B2, size: 0x8, addend: 0x0, symName: __ZNKSt3__118__allocation_guardINS_9allocatorINS_20__shared_ptr_emplaceI7ASTNodeNS1_IS3_EEEEEEE5__getB8ne180100Ev, symObjAddr: 0x2188, symBinAddr: 0x100004D3C, symSize: 0x18 }
  - { offset: 0x258DE, size: 0x8, addend: 0x0, symName: __ZNSt3__120__shared_ptr_emplaceI7ASTNodeNS_9allocatorIS1_EEEC1B8ne180100IJS1_ES3_Li0EEES3_DpOT_, symObjAddr: 0x21A0, symBinAddr: 0x100004D54, symSize: 0x34 }
  - { offset: 0x25940, size: 0x8, addend: 0x0, symName: __ZNSt3__118__allocation_guardINS_9allocatorINS_20__shared_ptr_emplaceI7ASTNodeNS1_IS3_EEEEEEE13__release_ptrB8ne180100Ev, symObjAddr: 0x21D4, symBinAddr: 0x100004D88, symSize: 0x24 }
  - { offset: 0x25974, size: 0x8, addend: 0x0, symName: __ZNSt3__110shared_ptrI7ASTNodeE27__create_with_control_blockB8ne180100IS1_NS_20__shared_ptr_emplaceIS1_NS_9allocatorIS1_EEEEEES2_PT_PT0_, symObjAddr: 0x21F8, symBinAddr: 0x100004DAC, symSize: 0xA4 }
  - { offset: 0x259C9, size: 0x8, addend: 0x0, symName: __ZNSt3__120__shared_ptr_emplaceI7ASTNodeNS_9allocatorIS1_EEE10__get_elemB8ne180100Ev, symObjAddr: 0x229C, symBinAddr: 0x100004E50, symSize: 0x28 }
  - { offset: 0x259EF, size: 0x8, addend: 0x0, symName: __ZNSt3__118__allocation_guardINS_9allocatorINS_20__shared_ptr_emplaceI7ASTNodeNS1_IS3_EEEEEEED1B8ne180100Ev, symObjAddr: 0x22C4, symBinAddr: 0x100004E78, symSize: 0x2C }
  - { offset: 0x25A19, size: 0x8, addend: 0x0, symName: __ZNSt3__118__allocation_guardINS_9allocatorINS_20__shared_ptr_emplaceI7ASTNodeNS1_IS3_EEEEEEEC2B8ne180100IS4_EET_m, symObjAddr: 0x22F0, symBinAddr: 0x100004EA4, symSize: 0x50 }
  - { offset: 0x25A68, size: 0x8, addend: 0x0, symName: __ZNSt3__19allocatorINS_20__shared_ptr_emplaceI7ASTNodeNS0_IS2_EEEEEC1B8ne180100IS2_EERKNS0_IT_EE, symObjAddr: 0x2340, symBinAddr: 0x100004EF4, symSize: 0x34 }
  - { offset: 0x25AA5, size: 0x8, addend: 0x0, symName: __ZNSt3__116allocator_traitsINS_9allocatorINS_20__shared_ptr_emplaceI7ASTNodeNS1_IS3_EEEEEEE8allocateB8ne180100ERS6_m, symObjAddr: 0x2374, symBinAddr: 0x100004F28, symSize: 0x2C }
  - { offset: 0x25AD8, size: 0x8, addend: 0x0, symName: __ZNSt3__19allocatorINS_20__shared_ptr_emplaceI7ASTNodeNS0_IS2_EEEEEC2B8ne180100IS2_EERKNS0_IT_EE, symObjAddr: 0x23A0, symBinAddr: 0x100004F54, symSize: 0x30 }
  - { offset: 0x25B15, size: 0x8, addend: 0x0, symName: __ZNSt3__116__non_trivial_ifILb1ENS_9allocatorINS_20__shared_ptr_emplaceI7ASTNodeNS1_IS3_EEEEEEEC2B8ne180100Ev, symObjAddr: 0x23D0, symBinAddr: 0x100004F84, symSize: 0x14 }
  - { offset: 0x25B3F, size: 0x8, addend: 0x0, symName: __ZNSt3__19allocatorINS_20__shared_ptr_emplaceI7ASTNodeNS0_IS2_EEEEE8allocateB8ne180100Em, symObjAddr: 0x23E4, symBinAddr: 0x100004F98, symSize: 0x5C }
  - { offset: 0x25B7F, size: 0x8, addend: 0x0, symName: __ZNSt3__116allocator_traitsINS_9allocatorINS_20__shared_ptr_emplaceI7ASTNodeNS1_IS3_EEEEEEE8max_sizeB8ne180100IS6_vvEEmRKS6_, symObjAddr: 0x2440, symBinAddr: 0x100004FF4, symSize: 0x28 }
  - { offset: 0x25BAB, size: 0x8, addend: 0x0, symName: __ZNSt3__114numeric_limitsImE3maxB8ne180100Ev, symObjAddr: 0x24FC, symBinAddr: 0x1000050B0, symSize: 0x14 }
  - { offset: 0x25BBF, size: 0x8, addend: 0x0, symName: __ZNSt3__123__libcpp_numeric_limitsImLb1EE3maxB8ne180100Ev, symObjAddr: 0x2510, symBinAddr: 0x1000050C4, symSize: 0x8 }
  - { offset: 0x25BD3, size: 0x8, addend: 0x0, symName: __ZNSt3__120__shared_ptr_emplaceI7ASTNodeNS_9allocatorIS1_EEEC2B8ne180100IJS1_ES3_Li0EEES3_DpOT_, symObjAddr: 0x2588, symBinAddr: 0x10000513C, symSize: 0xBC }
  - { offset: 0x25C56, size: 0x8, addend: 0x0, symName: __ZNSt3__119__shared_weak_countC2B8ne180100El, symObjAddr: 0x2644, symBinAddr: 0x1000051F8, symSize: 0x4C }
  - { offset: 0x25C8E, size: 0x8, addend: 0x0, symName: __ZNSt3__120__shared_ptr_emplaceI7ASTNodeNS_9allocatorIS1_EEE8_StorageC1B8ne180100EOS3_, symObjAddr: 0x2690, symBinAddr: 0x100005244, symSize: 0x34 }
  - { offset: 0x25CC7, size: 0x8, addend: 0x0, symName: __ZNSt3__120__shared_ptr_emplaceI7ASTNodeNS_9allocatorIS1_EEE11__get_allocB8ne180100Ev, symObjAddr: 0x26C4, symBinAddr: 0x100005278, symSize: 0x28 }
  - { offset: 0x25CF3, size: 0x8, addend: 0x0, symName: __ZNSt3__116allocator_traitsINS_9allocatorI7ASTNodeEEE9constructB8ne180100IS2_JS2_EvvEEvRS3_PT_DpOT0_, symObjAddr: 0x26EC, symBinAddr: 0x1000052A0, symSize: 0x30 }
  - { offset: 0x25D48, size: 0x8, addend: 0x0, symName: __ZNSt3__120__shared_ptr_emplaceI7ASTNodeNS_9allocatorIS1_EEE8_StorageD1B8ne180100Ev, symObjAddr: 0x271C, symBinAddr: 0x1000052D0, symSize: 0x2C }
  - { offset: 0x25D72, size: 0x8, addend: 0x0, symName: __ZNSt3__120__shared_ptr_emplaceI7ASTNodeNS_9allocatorIS1_EEED1Ev, symObjAddr: 0x2748, symBinAddr: 0x1000052FC, symSize: 0x2C }
  - { offset: 0x25D9E, size: 0x8, addend: 0x0, symName: __ZNSt3__120__shared_ptr_emplaceI7ASTNodeNS_9allocatorIS1_EEED0Ev, symObjAddr: 0x2774, symBinAddr: 0x100005328, symSize: 0x30 }
  - { offset: 0x25DCA, size: 0x8, addend: 0x0, symName: __ZNSt3__120__shared_ptr_emplaceI7ASTNodeNS_9allocatorIS1_EEE16__on_zero_sharedEv, symObjAddr: 0x27A4, symBinAddr: 0x100005358, symSize: 0x24 }
  - { offset: 0x25DF0, size: 0x8, addend: 0x0, symName: __ZNSt3__120__shared_ptr_emplaceI7ASTNodeNS_9allocatorIS1_EEE21__on_zero_shared_weakEv, symObjAddr: 0x27C8, symBinAddr: 0x10000537C, symSize: 0x5C }
  - { offset: 0x25E31, size: 0x8, addend: 0x0, symName: __ZNSt3__114__shared_countC2B8ne180100El, symObjAddr: 0x2824, symBinAddr: 0x1000053D8, symSize: 0x30 }
  - { offset: 0x25E69, size: 0x8, addend: 0x0, symName: __ZNSt3__120__shared_ptr_emplaceI7ASTNodeNS_9allocatorIS1_EEE8_StorageC2B8ne180100EOS3_, symObjAddr: 0x2854, symBinAddr: 0x100005408, symSize: 0x30 }
  - { offset: 0x25EA2, size: 0x8, addend: 0x0, symName: __ZNSt3__120__shared_ptr_emplaceI7ASTNodeNS_9allocatorIS1_EEE8_Storage11__get_allocB8ne180100Ev, symObjAddr: 0x2884, symBinAddr: 0x100005438, symSize: 0x3C }
  - { offset: 0x25EF5, size: 0x8, addend: 0x0, symName: __ZNSt3__117__compressed_pairINS_9allocatorI7ASTNodeEES2_E16__get_first_baseB8ne180100EPS4_, symObjAddr: 0x28C0, symBinAddr: 0x100005474, symSize: 0x14 }
  - { offset: 0x25F18, size: 0x8, addend: 0x0, symName: __ZN7ASTNodeC1EOS_, symObjAddr: 0x2934, symBinAddr: 0x1000054E8, symSize: 0x34 }
  - { offset: 0x25F4D, size: 0x8, addend: 0x0, symName: __ZN7ASTNodeC2EOS_, symObjAddr: 0x2968, symBinAddr: 0x10000551C, symSize: 0x64 }
  - { offset: 0x25F82, size: 0x8, addend: 0x0, symName: __ZNSt3__16vectorINS_10shared_ptrI7ASTNodeEENS_9allocatorIS3_EEEC1B8ne180100EOS6_, symObjAddr: 0x29CC, symBinAddr: 0x100005580, symSize: 0x34 }
  - { offset: 0x25FC8, size: 0x8, addend: 0x0, symName: __ZN6emplex5TokenC1EOS0_, symObjAddr: 0x2A00, symBinAddr: 0x1000055B4, symSize: 0x34 }
  - { offset: 0x25FFD, size: 0x8, addend: 0x0, symName: __ZNSt3__16vectorINS_10shared_ptrI7ASTNodeEENS_9allocatorIS3_EEEC2B8ne180100EOS6_, symObjAddr: 0x2A34, symBinAddr: 0x1000055E8, symSize: 0xC4 }
  - { offset: 0x26038, size: 0x8, addend: 0x0, symName: __ZNSt3__16vectorINS_10shared_ptrI7ASTNodeEENS_9allocatorIS3_EEE7__allocB8ne180100Ev, symObjAddr: 0x2AF8, symBinAddr: 0x1000056AC, symSize: 0x28 }
  - { offset: 0x26064, size: 0x8, addend: 0x0, symName: __ZNSt3__117__compressed_pairIPNS_10shared_ptrI7ASTNodeEENS_9allocatorIS3_EEEC1B8ne180100IDnS6_EEOT_OT0_, symObjAddr: 0x2B20, symBinAddr: 0x1000056D4, symSize: 0x3C }
  - { offset: 0x260BC, size: 0x8, addend: 0x0, symName: __ZNSt3__16vectorINS_10shared_ptrI7ASTNodeEENS_9allocatorIS3_EEE9__end_capB8ne180100Ev, symObjAddr: 0x2B5C, symBinAddr: 0x100005710, symSize: 0x28 }
  - { offset: 0x260E2, size: 0x8, addend: 0x0, symName: __ZNSt3__117__compressed_pairIPNS_10shared_ptrI7ASTNodeEENS_9allocatorIS3_EEE6secondB8ne180100Ev, symObjAddr: 0x2B84, symBinAddr: 0x100005738, symSize: 0x24 }
  - { offset: 0x26108, size: 0x8, addend: 0x0, symName: __ZNSt3__122__compressed_pair_elemINS_9allocatorINS_10shared_ptrI7ASTNodeEEEELi1ELb1EE5__getB8ne180100Ev, symObjAddr: 0x2BA8, symBinAddr: 0x10000575C, symSize: 0x14 }
  - { offset: 0x2612E, size: 0x8, addend: 0x0, symName: __ZNSt3__117__compressed_pairIPNS_10shared_ptrI7ASTNodeEENS_9allocatorIS3_EEEC2B8ne180100IDnS6_EEOT_OT0_, symObjAddr: 0x2BBC, symBinAddr: 0x100005770, symSize: 0x44 }
  - { offset: 0x26186, size: 0x8, addend: 0x0, symName: __ZNSt3__122__compressed_pair_elemIPNS_10shared_ptrI7ASTNodeEELi0ELb0EEC2B8ne180100IDnvEEOT_, symObjAddr: 0x2C00, symBinAddr: 0x1000057B4, symSize: 0x1C }
  - { offset: 0x261C8, size: 0x8, addend: 0x0, symName: __ZNSt3__122__compressed_pair_elemINS_9allocatorINS_10shared_ptrI7ASTNodeEEEELi1ELb1EEC2B8ne180100IS5_vEEOT_, symObjAddr: 0x2C1C, symBinAddr: 0x1000057D0, symSize: 0x18 }
  - { offset: 0x2620A, size: 0x8, addend: 0x0, symName: __ZNSt3__117__compressed_pairIPNS_10shared_ptrI7ASTNodeEENS_9allocatorIS3_EEE5firstB8ne180100Ev, symObjAddr: 0x2C34, symBinAddr: 0x1000057E8, symSize: 0x24 }
  - { offset: 0x26230, size: 0x8, addend: 0x0, symName: __ZNSt3__122__compressed_pair_elemIPNS_10shared_ptrI7ASTNodeEELi0ELb0EE5__getB8ne180100Ev, symObjAddr: 0x2C58, symBinAddr: 0x10000580C, symSize: 0x14 }
  - { offset: 0x26256, size: 0x8, addend: 0x0, symName: __ZN6emplex5TokenC2EOS0_, symObjAddr: 0x2C6C, symBinAddr: 0x100005820, symSize: 0x54 }
  - { offset: 0x2628B, size: 0x8, addend: 0x0, symName: __ZNSt3__112basic_stringIcNS_11char_traitsIcEENS_9allocatorIcEEEC1B8ne180100EOS5_, symObjAddr: 0x2CC0, symBinAddr: 0x100005874, symSize: 0x34 }
  - { offset: 0x262C4, size: 0x8, addend: 0x0, symName: __ZNSt3__112basic_stringIcNS_11char_traitsIcEENS_9allocatorIcEEEC2B8ne180100EOS5_, symObjAddr: 0x2CF4, symBinAddr: 0x1000058A8, symSize: 0xB8 }
  - { offset: 0x2632F, size: 0x8, addend: 0x0, symName: __ZZNSt3__112basic_stringIcNS_11char_traitsIcEENS_9allocatorIcEEEC1B8ne180100EOS5_ENKUlRS5_E_clES7_, symObjAddr: 0x2DAC, symBinAddr: 0x100005960, symSize: 0x40 }
  - { offset: 0x26368, size: 0x8, addend: 0x0, symName: __ZNSt3__117__compressed_pairINS_12basic_stringIcNS_11char_traitsIcEENS_9allocatorIcEEE5__repES5_E5firstB8ne180100Ev, symObjAddr: 0x2DEC, symBinAddr: 0x1000059A0, symSize: 0x24 }
  - { offset: 0x2638E, size: 0x8, addend: 0x0, symName: __ZNKSt3__112basic_stringIcNS_11char_traitsIcEENS_9allocatorIcEEE17__annotate_deleteB8ne180100Ev, symObjAddr: 0x2E10, symBinAddr: 0x1000059C4, symSize: 0x10 }
  - { offset: 0x263B4, size: 0x8, addend: 0x0, symName: __ZNSt3__122__compressed_pair_elemINS_12basic_stringIcNS_11char_traitsIcEENS_9allocatorIcEEE5__repELi0ELb0EE5__getB8ne180100Ev, symObjAddr: 0x2E20, symBinAddr: 0x1000059D4, symSize: 0x14 }
  - { offset: 0x263DA, size: 0x8, addend: 0x0, symName: __ZNSt3__120__shared_ptr_emplaceI7ASTNodeNS_9allocatorIS1_EEE8_StorageD2B8ne180100Ev, symObjAddr: 0x2E34, symBinAddr: 0x1000059E8, symSize: 0x2C }
  - { offset: 0x26404, size: 0x8, addend: 0x0, symName: __ZNSt3__120__shared_ptr_emplaceI7ASTNodeNS_9allocatorIS1_EEED2Ev, symObjAddr: 0x2E60, symBinAddr: 0x100005A14, symSize: 0x48 }
  - { offset: 0x26430, size: 0x8, addend: 0x0, symName: __ZNSt3__120__shared_ptr_emplaceI7ASTNodeNS_9allocatorIS1_EEE21__on_zero_shared_implB8ne180100IS3_Li0EEEvv, symObjAddr: 0x2EA8, symBinAddr: 0x100005A5C, symSize: 0x44 }
  - { offset: 0x26480, size: 0x8, addend: 0x0, symName: __ZNSt3__116allocator_traitsINS_9allocatorI7ASTNodeEEE7destroyB8ne180100IS2_vvEEvRS3_PT_, symObjAddr: 0x2EEC, symBinAddr: 0x100005AA0, symSize: 0x28 }
  - { offset: 0x264BB, size: 0x8, addend: 0x0, symName: __ZNSt3__116allocator_traitsINS_9allocatorINS_20__shared_ptr_emplaceI7ASTNodeNS1_IS3_EEEEEEE10deallocateB8ne180100ERS6_PS5_m, symObjAddr: 0x2F38, symBinAddr: 0x100005AEC, symSize: 0x34 }
  - { offset: 0x26503, size: 0x8, addend: 0x0, symName: __ZNSt3__114pointer_traitsIPNS_20__shared_ptr_emplaceI7ASTNodeNS_9allocatorIS2_EEEEE10pointer_toB8ne180100ERS5_, symObjAddr: 0x2F6C, symBinAddr: 0x100005B20, symSize: 0x14 }
  - { offset: 0x26526, size: 0x8, addend: 0x0, symName: __ZNSt3__19allocatorINS_20__shared_ptr_emplaceI7ASTNodeNS0_IS2_EEEEE10deallocateB8ne180100EPS4_m, symObjAddr: 0x2F80, symBinAddr: 0x100005B34, symSize: 0x44 }
  - { offset: 0x26568, size: 0x8, addend: 0x0, symName: __ZNSt3__110shared_ptrI7ASTNodeEC1B8ne180100Ev, symObjAddr: 0x30CC, symBinAddr: 0x100005C80, symSize: 0x2C }
  - { offset: 0x26592, size: 0x8, addend: 0x0, symName: __ZNSt3__110shared_ptrI7ASTNodeE18__enable_weak_thisB8ne180100Ez, symObjAddr: 0x30F8, symBinAddr: 0x100005CAC, symSize: 0x10 }
  - { offset: 0x265B9, size: 0x8, addend: 0x0, symName: __ZNSt3__110shared_ptrI7ASTNodeEC2B8ne180100Ev, symObjAddr: 0x3108, symBinAddr: 0x100005CBC, symSize: 0x1C }
  - { offset: 0x265E3, size: 0x8, addend: 0x0, symName: __ZNSt3__120__shared_ptr_emplaceI7ASTNodeNS_9allocatorIS1_EEE8_Storage10__get_elemB8ne180100Ev, symObjAddr: 0x3124, symBinAddr: 0x100005CD8, symSize: 0x3C }
  - { offset: 0x26636, size: 0x8, addend: 0x0, symName: __ZNSt3__117__compressed_pairINS_9allocatorI7ASTNodeEES2_E17__get_second_baseB8ne180100EPS4_, symObjAddr: 0x3160, symBinAddr: 0x100005D14, symSize: 0x14 }
  - { offset: 0x26659, size: 0x8, addend: 0x0, symName: __ZNSt3__118__allocation_guardINS_9allocatorINS_20__shared_ptr_emplaceI7ASTNodeNS1_IS3_EEEEEEED2B8ne180100Ev, symObjAddr: 0x3174, symBinAddr: 0x100005D28, symSize: 0x2C }
  - { offset: 0x26683, size: 0x8, addend: 0x0, symName: __ZNSt3__118__allocation_guardINS_9allocatorINS_20__shared_ptr_emplaceI7ASTNodeNS1_IS3_EEEEEEE9__destroyB8ne180100Ev, symObjAddr: 0x31A0, symBinAddr: 0x100005D54, symSize: 0x4C }
  - { offset: 0x266A9, size: 0x8, addend: 0x0, symName: __ZNSt3__19allocatorI7ASTNodeEC2B8ne180100Ev, symObjAddr: 0x31EC, symBinAddr: 0x100005DA0, symSize: 0x2C }
  - { offset: 0x266D3, size: 0x8, addend: 0x0, symName: __ZNSt3__116__non_trivial_ifILb1ENS_9allocatorI7ASTNodeEEEC2B8ne180100Ev, symObjAddr: 0x3218, symBinAddr: 0x100005DCC, symSize: 0x14 }
  - { offset: 0x266FD, size: 0x8, addend: 0x0, symName: __ZN7ASTNodeC2ENS_4TypeE, symObjAddr: 0x322C, symBinAddr: 0x100005DE0, symSize: 0x48 }
  - { offset: 0x26735, size: 0x8, addend: 0x0, symName: __ZNSt3__16vectorINS_10shared_ptrI7ASTNodeEENS_9allocatorIS3_EEEC1B8ne180100Ev, symObjAddr: 0x3274, symBinAddr: 0x100005E28, symSize: 0x2C }
  - { offset: 0x2675F, size: 0x8, addend: 0x0, symName: __ZN6emplex5TokenC1Ev, symObjAddr: 0x32A0, symBinAddr: 0x100005E54, symSize: 0x2C }
  - { offset: 0x2678B, size: 0x8, addend: 0x0, symName: __ZNSt3__16vectorINS_10shared_ptrI7ASTNodeEENS_9allocatorIS3_EEEC2B8ne180100Ev, symObjAddr: 0x32CC, symBinAddr: 0x100005E80, symSize: 0x4C }
  - { offset: 0x267B5, size: 0x8, addend: 0x0, symName: __ZNSt3__117__compressed_pairIPNS_10shared_ptrI7ASTNodeEENS_9allocatorIS3_EEEC1B8ne180100IDnNS_18__default_init_tagEEEOT_OT0_, symObjAddr: 0x3318, symBinAddr: 0x100005ECC, symSize: 0x3C }
  - { offset: 0x2680D, size: 0x8, addend: 0x0, symName: __ZNSt3__117__compressed_pairIPNS_10shared_ptrI7ASTNodeEENS_9allocatorIS3_EEEC2B8ne180100IDnNS_18__default_init_tagEEEOT_OT0_, symObjAddr: 0x3354, symBinAddr: 0x100005F08, symSize: 0x40 }
  - { offset: 0x26865, size: 0x8, addend: 0x0, symName: __ZNSt3__122__compressed_pair_elemINS_9allocatorINS_10shared_ptrI7ASTNodeEEEELi1ELb1EEC2B8ne180100ENS_18__default_init_tagE, symObjAddr: 0x3394, symBinAddr: 0x100005F48, symSize: 0x2C }
  - { offset: 0x26899, size: 0x8, addend: 0x0, symName: __ZNSt3__19allocatorINS_10shared_ptrI7ASTNodeEEEC2B8ne180100Ev, symObjAddr: 0x33C0, symBinAddr: 0x100005F74, symSize: 0x2C }
  - { offset: 0x268C3, size: 0x8, addend: 0x0, symName: __ZNSt3__116__non_trivial_ifILb1ENS_9allocatorINS_10shared_ptrI7ASTNodeEEEEEC2B8ne180100Ev, symObjAddr: 0x33EC, symBinAddr: 0x100005FA0, symSize: 0x14 }
  - { offset: 0x268ED, size: 0x8, addend: 0x0, symName: __ZN6emplex5TokenC2Ev, symObjAddr: 0x3400, symBinAddr: 0x100005FB4, symSize: 0x30 }
  - { offset: 0x26919, size: 0x8, addend: 0x0, symName: __ZN7ASTNodeD2Ev, symObjAddr: 0x3430, symBinAddr: 0x100005FE4, symSize: 0x3C }
  - { offset: 0x26945, size: 0x8, addend: 0x0, symName: __ZN6emplex5TokenD1Ev, symObjAddr: 0x346C, symBinAddr: 0x100006020, symSize: 0x2C }
  - { offset: 0x26971, size: 0x8, addend: 0x0, symName: __ZNSt3__16vectorINS_10shared_ptrI7ASTNodeEENS_9allocatorIS3_EEED1B8ne180100Ev, symObjAddr: 0x3498, symBinAddr: 0x10000604C, symSize: 0x2C }
  - { offset: 0x2699B, size: 0x8, addend: 0x0, symName: __ZN6emplex5TokenD2Ev, symObjAddr: 0x34C4, symBinAddr: 0x100006078, symSize: 0x30 }
  - { offset: 0x269C7, size: 0x8, addend: 0x0, symName: __ZNSt3__16vectorINS_10shared_ptrI7ASTNodeEENS_9allocatorIS3_EEED2B8ne180100Ev, symObjAddr: 0x34F4, symBinAddr: 0x1000060A8, symSize: 0x44 }
  - { offset: 0x269F1, size: 0x8, addend: 0x0, symName: __ZNSt3__16vectorINS_10shared_ptrI7ASTNodeEENS_9allocatorIS3_EEE16__destroy_vectorC1B8ne180100ERS6_, symObjAddr: 0x3538, symBinAddr: 0x1000060EC, symSize: 0x34 }
  - { offset: 0x26A2A, size: 0x8, addend: 0x0, symName: __ZNSt3__16vectorINS_10shared_ptrI7ASTNodeEENS_9allocatorIS3_EEE16__destroy_vectorclB8ne180100Ev, symObjAddr: 0x356C, symBinAddr: 0x100006120, symSize: 0x90 }
  - { offset: 0x26A50, size: 0x8, addend: 0x0, symName: __ZNSt3__16vectorINS_10shared_ptrI7ASTNodeEENS_9allocatorIS3_EEE16__destroy_vectorC2B8ne180100ERS6_, symObjAddr: 0x35FC, symBinAddr: 0x1000061B0, symSize: 0x20 }
  - { offset: 0x26A89, size: 0x8, addend: 0x0, symName: __ZNSt3__16vectorINS_10shared_ptrI7ASTNodeEENS_9allocatorIS3_EEE7__clearB8ne180100Ev, symObjAddr: 0x361C, symBinAddr: 0x1000061D0, symSize: 0x28 }
  - { offset: 0x26AAF, size: 0x8, addend: 0x0, symName: __ZNKSt3__16vectorINS_10shared_ptrI7ASTNodeEENS_9allocatorIS3_EEE17__annotate_deleteB8ne180100Ev, symObjAddr: 0x3644, symBinAddr: 0x1000061F8, symSize: 0x10 }
  - { offset: 0x26AD5, size: 0x8, addend: 0x0, symName: __ZNSt3__116allocator_traitsINS_9allocatorINS_10shared_ptrI7ASTNodeEEEEE10deallocateB8ne180100ERS5_PS4_m, symObjAddr: 0x3654, symBinAddr: 0x100006208, symSize: 0x34 }
  - { offset: 0x26B17, size: 0x8, addend: 0x0, symName: __ZNKSt3__16vectorINS_10shared_ptrI7ASTNodeEENS_9allocatorIS3_EEE8capacityB8ne180100Ev, symObjAddr: 0x3688, symBinAddr: 0x10000623C, symSize: 0x40 }
  - { offset: 0x26B3D, size: 0x8, addend: 0x0, symName: __ZNSt3__16vectorINS_10shared_ptrI7ASTNodeEENS_9allocatorIS3_EEE22__base_destruct_at_endB8ne180100EPS3_, symObjAddr: 0x36C8, symBinAddr: 0x10000627C, symSize: 0x8C }
  - { offset: 0x26B81, size: 0x8, addend: 0x0, symName: __ZNSt3__116allocator_traitsINS_9allocatorINS_10shared_ptrI7ASTNodeEEEEE7destroyB8ne180100IS4_vvEEvRS5_PT_, symObjAddr: 0x3754, symBinAddr: 0x100006308, symSize: 0x28 }
  - { offset: 0x26BBC, size: 0x8, addend: 0x0, symName: __ZNSt3__19allocatorINS_10shared_ptrI7ASTNodeEEE10deallocateB8ne180100EPS3_m, symObjAddr: 0x37B4, symBinAddr: 0x100006368, symSize: 0x40 }
  - { offset: 0x26BFE, size: 0x8, addend: 0x0, symName: __ZNKSt3__16vectorINS_10shared_ptrI7ASTNodeEENS_9allocatorIS3_EEE9__end_capB8ne180100Ev, symObjAddr: 0x37F4, symBinAddr: 0x1000063A8, symSize: 0x28 }
  - { offset: 0x26C24, size: 0x8, addend: 0x0, symName: __ZNKSt3__117__compressed_pairIPNS_10shared_ptrI7ASTNodeEENS_9allocatorIS3_EEE5firstB8ne180100Ev, symObjAddr: 0x381C, symBinAddr: 0x1000063D0, symSize: 0x24 }
  - { offset: 0x26C4A, size: 0x8, addend: 0x0, symName: __ZNKSt3__122__compressed_pair_elemIPNS_10shared_ptrI7ASTNodeEELi0ELb0EE5__getB8ne180100Ev, symObjAddr: 0x3840, symBinAddr: 0x1000063F4, symSize: 0x14 }
  - { offset: 0x26C70, size: 0x8, addend: 0x0, symName: __ZN6emplex5Lexer8TokenizeENSt3__117basic_string_viewIcNS1_11char_traitsIcEEEE, symObjAddr: 0x3854, symBinAddr: 0x100006408, symSize: 0x178 }
  - { offset: 0x26CC2, size: 0x8, addend: 0x0, symName: __ZNSt3__119istreambuf_iteratorIcNS_11char_traitsIcEEEC1B8ne180100ERNS_13basic_istreamIcS2_EE, symObjAddr: 0x39CC, symBinAddr: 0x100006580, symSize: 0x34 }
  - { offset: 0x26CFA, size: 0x8, addend: 0x0, symName: __ZNSt3__119istreambuf_iteratorIcNS_11char_traitsIcEEEC1B8ne180100Ev, symObjAddr: 0x3A00, symBinAddr: 0x1000065B4, symSize: 0x2C }
  - { offset: 0x26D24, size: 0x8, addend: 0x0, symName: __ZNSt3__112basic_stringIcNS_11char_traitsIcEENS_9allocatorIcEEEC1B8ne180100INS_19istreambuf_iteratorIcS2_EELi0EEET_S9_, symObjAddr: 0x3A2C, symBinAddr: 0x1000065E0, symSize: 0x3C }
  - { offset: 0x26D7B, size: 0x8, addend: 0x0, symName: __ZN6emplex5Lexer9NextTokenENSt3__117basic_string_viewIcNS1_11char_traitsIcEEEE, symObjAddr: 0x3A68, symBinAddr: 0x10000661C, symSize: 0x394 }
  - { offset: 0x26E42, size: 0x8, addend: 0x0, symName: __ZNK6emplex5TokencviEv, symObjAddr: 0x3DFC, symBinAddr: 0x1000069B0, symSize: 0x18 }
  - { offset: 0x26E68, size: 0x8, addend: 0x0, symName: __ZN6emplex5Lexer11IgnoreTokenEi, symObjAddr: 0x3E14, symBinAddr: 0x1000069C8, symSize: 0x80 }
  - { offset: 0x26E8B, size: 0x8, addend: 0x0, symName: __ZNSt3__16vectorIN6emplex5TokenENS_9allocatorIS2_EEE9push_backB8ne180100ERKS2_, symObjAddr: 0x3E94, symBinAddr: 0x100006A48, symSize: 0x90 }
  - { offset: 0x26ED1, size: 0x8, addend: 0x0, symName: __ZNKSt3__117basic_string_viewIcNS_11char_traitsIcEEEixB8ne180100Em, symObjAddr: 0x3F48, symBinAddr: 0x100006AFC, symSize: 0x24 }
  - { offset: 0x26F06, size: 0x8, addend: 0x0, symName: __ZN6emplex3DFA7GetNextEii, symObjAddr: 0x3F6C, symBinAddr: 0x100006B20, symSize: 0xAC }
  - { offset: 0x26F45, size: 0x8, addend: 0x0, symName: __ZN6emplex3DFA7GetStopEi, symObjAddr: 0x4018, symBinAddr: 0x100006BCC, symSize: 0x5C }
  - { offset: 0x26F68, size: 0x8, addend: 0x0, symName: __ZNKSt3__117basic_string_viewIcNS_11char_traitsIcEEE6substrB8ne180100Emm, symObjAddr: 0x4074, symBinAddr: 0x100006C28, symSize: 0xAC }
  - { offset: 0x26FAC, size: 0x8, addend: 0x0, symName: __ZNSt3__112basic_stringIcNS_11char_traitsIcEENS_9allocatorIcEEEaSINS_17basic_string_viewIcS2_EELi0EEERS5_RKT_, symObjAddr: 0x4120, symBinAddr: 0x100006CD4, symSize: 0x38 }
  - { offset: 0x26FFF, size: 0x8, addend: 0x0, symName: __ZNSt3__112basic_stringIcNS_11char_traitsIcEENS_9allocatorIcEEE5beginB8ne180100Ev, symObjAddr: 0x41C4, symBinAddr: 0x100006D78, symSize: 0x4C }
  - { offset: 0x27025, size: 0x8, addend: 0x0, symName: __ZNSt3__112basic_stringIcNS_11char_traitsIcEENS_9allocatorIcEEE3endB8ne180100Ev, symObjAddr: 0x4210, symBinAddr: 0x100006DC4, symSize: 0x54 }
  - { offset: 0x2704B, size: 0x8, addend: 0x0, symName: __ZNKSt3__15arrayINS0_IiLm128EEELm38EEixB8ne180100Em, symObjAddr: 0x4264, symBinAddr: 0x100006E18, symSize: 0x20 }
  - { offset: 0x2707F, size: 0x8, addend: 0x0, symName: __ZNKSt3__15arrayIiLm128EEixB8ne180100Em, symObjAddr: 0x4284, symBinAddr: 0x100006E38, symSize: 0x20 }
  - { offset: 0x270B3, size: 0x8, addend: 0x0, symName: __ZNKSt3__15arrayIiLm38EEixB8ne180100Em, symObjAddr: 0x42A4, symBinAddr: 0x100006E58, symSize: 0x20 }
  - { offset: 0x270E7, size: 0x8, addend: 0x0, symName: __ZNSt3__117basic_string_viewIcNS_11char_traitsIcEEEC1B8ne180100Ev, symObjAddr: 0x4328, symBinAddr: 0x100006EDC, symSize: 0x2C }
  - { offset: 0x27111, size: 0x8, addend: 0x0, symName: __ZNSt12out_of_rangeC1B8ne180100EPKc, symObjAddr: 0x4354, symBinAddr: 0x100006F08, symSize: 0x34 }
  - { offset: 0x27149, size: 0x8, addend: 0x0, symName: __ZNSt12out_of_rangeC2B8ne180100EPKc, symObjAddr: 0x4388, symBinAddr: 0x100006F3C, symSize: 0x44 }
  - { offset: 0x27181, size: 0x8, addend: 0x0, symName: __ZNSt3__117basic_string_viewIcNS_11char_traitsIcEEEC2B8ne180100Ev, symObjAddr: 0x43CC, symBinAddr: 0x100006F80, symSize: 0x1C }
  - { offset: 0x271AB, size: 0x8, addend: 0x0, symName: __ZNSt3__112basic_stringIcNS_11char_traitsIcEENS_9allocatorIcEEE6assignINS_17basic_string_viewIcS2_EELi0EEERS5_RKT_, symObjAddr: 0x43E8, symBinAddr: 0x100006F9C, symSize: 0x60 }
  - { offset: 0x271FE, size: 0x8, addend: 0x0, symName: __ZNKSt3__111__wrap_iterIPcEdeB8ne180100Ev, symObjAddr: 0x4548, symBinAddr: 0x1000070FC, symSize: 0x18 }
  - { offset: 0x27224, size: 0x8, addend: 0x0, symName: __ZNSt3__111__wrap_iterIPcEppB8ne180100Ev, symObjAddr: 0x4560, symBinAddr: 0x100007114, symSize: 0x20 }
  - { offset: 0x2724A, size: 0x8, addend: 0x0, symName: __ZNKSt3__111__wrap_iterIPcE4baseB8ne180100Ev, symObjAddr: 0x45C8, symBinAddr: 0x10000717C, symSize: 0x18 }
  - { offset: 0x2727B, size: 0x8, addend: 0x0, symName: __ZNKSt3__110__identityclB8ne180100IRcEEOT_S4_, symObjAddr: 0x45E0, symBinAddr: 0x100007194, symSize: 0x18 }
  - { offset: 0x272B8, size: 0x8, addend: 0x0, symName: __ZNSt3__112basic_stringIcNS_11char_traitsIcEENS_9allocatorIcEEE15__make_iteratorB8ne180100EPc, symObjAddr: 0x45F8, symBinAddr: 0x1000071AC, symSize: 0x30 }
  - { offset: 0x272ED, size: 0x8, addend: 0x0, symName: __ZNSt3__112basic_stringIcNS_11char_traitsIcEENS_9allocatorIcEEE13__get_pointerB8ne180100Ev, symObjAddr: 0x4628, symBinAddr: 0x1000071DC, symSize: 0x54 }
  - { offset: 0x27313, size: 0x8, addend: 0x0, symName: __ZNSt3__111__wrap_iterIPcEC1B8ne180100ES1_, symObjAddr: 0x467C, symBinAddr: 0x100007230, symSize: 0x34 }
  - { offset: 0x2734B, size: 0x8, addend: 0x0, symName: __ZNSt3__111__wrap_iterIPcEC2B8ne180100ES1_, symObjAddr: 0x46B0, symBinAddr: 0x100007264, symSize: 0x20 }
  - { offset: 0x27383, size: 0x8, addend: 0x0, symName: __ZNSt3__112basic_stringIcNS_11char_traitsIcEENS_9allocatorIcEEE18__get_long_pointerB8ne180100Ev, symObjAddr: 0x46D0, symBinAddr: 0x100007284, symSize: 0x28 }
  - { offset: 0x273A9, size: 0x8, addend: 0x0, symName: __ZNSt3__112basic_stringIcNS_11char_traitsIcEENS_9allocatorIcEEE19__get_short_pointerB8ne180100Ev, symObjAddr: 0x46F8, symBinAddr: 0x1000072AC, symSize: 0x28 }
  - { offset: 0x273CF, size: 0x8, addend: 0x0, symName: __ZNSt3__114pointer_traitsIPcE10pointer_toB8ne180100ERc, symObjAddr: 0x4720, symBinAddr: 0x1000072D4, symSize: 0x14 }
  - { offset: 0x273F2, size: 0x8, addend: 0x0, symName: __ZNSt3__16vectorIN6emplex5TokenENS_9allocatorIS2_EEE9__end_capB8ne180100Ev, symObjAddr: 0x4734, symBinAddr: 0x1000072E8, symSize: 0x28 }
  - { offset: 0x2741E, size: 0x8, addend: 0x0, symName: __ZNSt3__16vectorIN6emplex5TokenENS_9allocatorIS2_EEE22__construct_one_at_endB8ne180100IJRKS2_EEEvDpOT_, symObjAddr: 0x475C, symBinAddr: 0x100007310, symSize: 0x90 }
  - { offset: 0x2746D, size: 0x8, addend: 0x0, symName: __ZNSt3__16vectorIN6emplex5TokenENS_9allocatorIS2_EEE21__push_back_slow_pathIRKS2_EEPS2_OT_, symObjAddr: 0x47EC, symBinAddr: 0x1000073A0, symSize: 0xE8 }
  - { offset: 0x274CB, size: 0x8, addend: 0x0, symName: __ZNSt3__117__compressed_pairIPN6emplex5TokenENS_9allocatorIS2_EEE5firstB8ne180100Ev, symObjAddr: 0x48D4, symBinAddr: 0x100007488, symSize: 0x24 }
  - { offset: 0x274F1, size: 0x8, addend: 0x0, symName: __ZNSt3__122__compressed_pair_elemIPN6emplex5TokenELi0ELb0EE5__getB8ne180100Ev, symObjAddr: 0x48F8, symBinAddr: 0x1000074AC, symSize: 0x14 }
  - { offset: 0x27534, size: 0x8, addend: 0x0, symName: __ZNSt3__16vectorIN6emplex5TokenENS_9allocatorIS2_EEE21_ConstructTransactionC1B8ne180100ERS5_m, symObjAddr: 0x490C, symBinAddr: 0x1000074C0, symSize: 0x3C }
  - { offset: 0x2757C, size: 0x8, addend: 0x0, symName: __ZNSt3__116allocator_traitsINS_9allocatorIN6emplex5TokenEEEE9constructB8ne180100IS3_JRKS3_EvvEEvRS4_PT_DpOT0_, symObjAddr: 0x4948, symBinAddr: 0x1000074FC, symSize: 0x30 }
  - { offset: 0x275D1, size: 0x8, addend: 0x0, symName: __ZNSt3__16vectorIN6emplex5TokenENS_9allocatorIS2_EEE7__allocB8ne180100Ev, symObjAddr: 0x4978, symBinAddr: 0x10000752C, symSize: 0x28 }
  - { offset: 0x275F7, size: 0x8, addend: 0x0, symName: __ZNSt3__16vectorIN6emplex5TokenENS_9allocatorIS2_EEE21_ConstructTransactionD1B8ne180100Ev, symObjAddr: 0x49B4, symBinAddr: 0x100007568, symSize: 0x2C }
  - { offset: 0x27621, size: 0x8, addend: 0x0, symName: __ZNSt3__16vectorIN6emplex5TokenENS_9allocatorIS2_EEE21_ConstructTransactionC2B8ne180100ERS5_m, symObjAddr: 0x49E0, symBinAddr: 0x100007594, symSize: 0x4C }
  - { offset: 0x27669, size: 0x8, addend: 0x0, symName: __ZN6emplex5TokenC1ERKS0_, symObjAddr: 0x4A8C, symBinAddr: 0x100007640, symSize: 0x34 }
  - { offset: 0x2769E, size: 0x8, addend: 0x0, symName: __ZN6emplex5TokenC2ERKS0_, symObjAddr: 0x4AC0, symBinAddr: 0x100007674, symSize: 0x54 }
  - { offset: 0x276D3, size: 0x8, addend: 0x0, symName: __ZNSt3__117__compressed_pairIPN6emplex5TokenENS_9allocatorIS2_EEE6secondB8ne180100Ev, symObjAddr: 0x4B14, symBinAddr: 0x1000076C8, symSize: 0x24 }
  - { offset: 0x276F9, size: 0x8, addend: 0x0, symName: __ZNSt3__122__compressed_pair_elemINS_9allocatorIN6emplex5TokenEEELi1ELb1EE5__getB8ne180100Ev, symObjAddr: 0x4B38, symBinAddr: 0x1000076EC, symSize: 0x14 }
  - { offset: 0x2771F, size: 0x8, addend: 0x0, symName: __ZNSt3__16vectorIN6emplex5TokenENS_9allocatorIS2_EEE21_ConstructTransactionD2B8ne180100Ev, symObjAddr: 0x4B4C, symBinAddr: 0x100007700, symSize: 0x20 }
  - { offset: 0x27749, size: 0x8, addend: 0x0, symName: __ZNKSt3__16vectorIN6emplex5TokenENS_9allocatorIS2_EEE11__recommendB8ne180100Em, symObjAddr: 0x4B6C, symBinAddr: 0x100007720, symSize: 0xB4 }
  - { offset: 0x2779E, size: 0x8, addend: 0x0, symName: __ZNKSt3__16vectorIN6emplex5TokenENS_9allocatorIS2_EEE4sizeB8ne180100Ev, symObjAddr: 0x4C20, symBinAddr: 0x1000077D4, symSize: 0x28 }
  - { offset: 0x277C4, size: 0x8, addend: 0x0, symName: __ZNSt3__114__split_bufferIN6emplex5TokenERNS_9allocatorIS2_EEEC1EmmS5_, symObjAddr: 0x4C48, symBinAddr: 0x1000077FC, symSize: 0x44 }
  - { offset: 0x2781A, size: 0x8, addend: 0x0, symName: __ZNSt3__114__split_bufferIN6emplex5TokenERNS_9allocatorIS2_EEED1Ev, symObjAddr: 0x4D9C, symBinAddr: 0x100007950, symSize: 0x2C }
  - { offset: 0x27846, size: 0x8, addend: 0x0, symName: __ZNKSt3__16vectorIN6emplex5TokenENS_9allocatorIS2_EEE8max_sizeEv, symObjAddr: 0x4DC8, symBinAddr: 0x10000797C, symSize: 0x60 }
  - { offset: 0x2786E, size: 0x8, addend: 0x0, symName: __ZNKSt3__16vectorIN6emplex5TokenENS_9allocatorIS2_EEE20__throw_length_errorB8ne180100Ev, symObjAddr: 0x4E28, symBinAddr: 0x1000079DC, symSize: 0x1C }
  - { offset: 0x27894, size: 0x8, addend: 0x0, symName: __ZNKSt3__16vectorIN6emplex5TokenENS_9allocatorIS2_EEE8capacityB8ne180100Ev, symObjAddr: 0x4E44, symBinAddr: 0x1000079F8, symSize: 0x40 }
  - { offset: 0x278C6, size: 0x8, addend: 0x0, symName: __ZNSt3__116allocator_traitsINS_9allocatorIN6emplex5TokenEEEE8max_sizeB8ne180100IS4_vvEEmRKS4_, symObjAddr: 0x4EB0, symBinAddr: 0x100007A64, symSize: 0x28 }
  - { offset: 0x278F2, size: 0x8, addend: 0x0, symName: __ZNKSt3__16vectorIN6emplex5TokenENS_9allocatorIS2_EEE7__allocB8ne180100Ev, symObjAddr: 0x4ED8, symBinAddr: 0x100007A8C, symSize: 0x28 }
  - { offset: 0x27918, size: 0x8, addend: 0x0, symName: __ZNSt3__114numeric_limitsIlE3maxB8ne180100Ev, symObjAddr: 0x4F00, symBinAddr: 0x100007AB4, symSize: 0x14 }
  - { offset: 0x2792C, size: 0x8, addend: 0x0, symName: __ZNKSt3__117__compressed_pairIPN6emplex5TokenENS_9allocatorIS2_EEE6secondB8ne180100Ev, symObjAddr: 0x4F14, symBinAddr: 0x100007AC8, symSize: 0x24 }
  - { offset: 0x27952, size: 0x8, addend: 0x0, symName: __ZNKSt3__122__compressed_pair_elemINS_9allocatorIN6emplex5TokenEEELi1ELb1EE5__getB8ne180100Ev, symObjAddr: 0x4F38, symBinAddr: 0x100007AEC, symSize: 0x14 }
  - { offset: 0x27978, size: 0x8, addend: 0x0, symName: __ZNSt3__123__libcpp_numeric_limitsIlLb1EE3maxB8ne180100Ev, symObjAddr: 0x4F4C, symBinAddr: 0x100007B00, symSize: 0x8 }
  - { offset: 0x2798C, size: 0x8, addend: 0x0, symName: __ZNSt12length_errorC1B8ne180100EPKc, symObjAddr: 0x4FB8, symBinAddr: 0x100007B6C, symSize: 0x34 }
  - { offset: 0x279C4, size: 0x8, addend: 0x0, symName: __ZNSt12length_errorC2B8ne180100EPKc, symObjAddr: 0x4FEC, symBinAddr: 0x100007BA0, symSize: 0x44 }
  - { offset: 0x279FC, size: 0x8, addend: 0x0, symName: __ZNKSt3__16vectorIN6emplex5TokenENS_9allocatorIS2_EEE9__end_capB8ne180100Ev, symObjAddr: 0x5030, symBinAddr: 0x100007BE4, symSize: 0x28 }
  - { offset: 0x27A22, size: 0x8, addend: 0x0, symName: __ZNKSt3__117__compressed_pairIPN6emplex5TokenENS_9allocatorIS2_EEE5firstB8ne180100Ev, symObjAddr: 0x5058, symBinAddr: 0x100007C0C, symSize: 0x24 }
  - { offset: 0x27A48, size: 0x8, addend: 0x0, symName: __ZNKSt3__122__compressed_pair_elemIPN6emplex5TokenELi0ELb0EE5__getB8ne180100Ev, symObjAddr: 0x507C, symBinAddr: 0x100007C30, symSize: 0x14 }
  - { offset: 0x27A6E, size: 0x8, addend: 0x0, symName: __ZNSt3__114__split_bufferIN6emplex5TokenERNS_9allocatorIS2_EEEC2EmmS5_, symObjAddr: 0x50E4, symBinAddr: 0x100007C98, symSize: 0xE0 }
  - { offset: 0x27AE1, size: 0x8, addend: 0x0, symName: __ZNSt3__117__compressed_pairIPN6emplex5TokenERNS_9allocatorIS2_EEEC1B8ne180100IDnS6_EEOT_OT0_, symObjAddr: 0x51C4, symBinAddr: 0x100007D78, symSize: 0x3C }
  - { offset: 0x27B39, size: 0x8, addend: 0x0, symName: __ZNSt3__114__split_bufferIN6emplex5TokenERNS_9allocatorIS2_EEE7__allocB8ne180100Ev, symObjAddr: 0x5240, symBinAddr: 0x100007DF4, symSize: 0x28 }
  - { offset: 0x27B5F, size: 0x8, addend: 0x0, symName: __ZNSt3__114__split_bufferIN6emplex5TokenERNS_9allocatorIS2_EEE9__end_capB8ne180100Ev, symObjAddr: 0x5268, symBinAddr: 0x100007E1C, symSize: 0x28 }
  - { offset: 0x27B85, size: 0x8, addend: 0x0, symName: __ZNSt3__117__compressed_pairIPN6emplex5TokenERNS_9allocatorIS2_EEEC2B8ne180100IDnS6_EEOT_OT0_, symObjAddr: 0x5290, symBinAddr: 0x100007E44, symSize: 0x48 }
  - { offset: 0x27BDD, size: 0x8, addend: 0x0, symName: __ZNSt3__122__compressed_pair_elemIRNS_9allocatorIN6emplex5TokenEEELi1ELb0EEC2B8ne180100IS5_vEEOT_, symObjAddr: 0x52D8, symBinAddr: 0x100007E8C, symSize: 0x20 }
  - { offset: 0x27C1F, size: 0x8, addend: 0x0, symName: __ZNSt3__19allocatorIN6emplex5TokenEE8allocateB8ne180100Em, symObjAddr: 0x52F8, symBinAddr: 0x100007EAC, symSize: 0x5C }
  - { offset: 0x27C53, size: 0x8, addend: 0x0, symName: __ZNSt3__117__compressed_pairIPN6emplex5TokenERNS_9allocatorIS2_EEE6secondB8ne180100Ev, symObjAddr: 0x5354, symBinAddr: 0x100007F08, symSize: 0x28 }
  - { offset: 0x27C79, size: 0x8, addend: 0x0, symName: __ZNSt3__122__compressed_pair_elemIRNS_9allocatorIN6emplex5TokenEEELi1ELb0EE5__getB8ne180100Ev, symObjAddr: 0x537C, symBinAddr: 0x100007F30, symSize: 0x18 }
  - { offset: 0x27C9F, size: 0x8, addend: 0x0, symName: __ZNSt3__117__compressed_pairIPN6emplex5TokenERNS_9allocatorIS2_EEE5firstB8ne180100Ev, symObjAddr: 0x5394, symBinAddr: 0x100007F48, symSize: 0x24 }
  - { offset: 0x27CC5, size: 0x8, addend: 0x0, symName: __ZNKSt3__16vectorIN6emplex5TokenENS_9allocatorIS2_EEE17__annotate_deleteB8ne180100Ev, symObjAddr: 0x53B8, symBinAddr: 0x100007F6C, symSize: 0x10 }
  - { offset: 0x27CEB, size: 0x8, addend: 0x0, symName: __ZNSt3__116reverse_iteratorIPN6emplex5TokenEEC1B8ne180100ES3_, symObjAddr: 0x54F4, symBinAddr: 0x1000080A8, symSize: 0x34 }
  - { offset: 0x27D23, size: 0x8, addend: 0x0, symName: __ZNKSt3__116reverse_iteratorIPN6emplex5TokenEE4baseB8ne180100Ev, symObjAddr: 0x5528, symBinAddr: 0x1000080DC, symSize: 0x18 }
  - { offset: 0x27D49, size: 0x8, addend: 0x0, symName: __ZNKSt3__16vectorIN6emplex5TokenENS_9allocatorIS2_EEE14__annotate_newB8ne180100Em, symObjAddr: 0x557C, symBinAddr: 0x100008130, symSize: 0x14 }
  - { offset: 0x27D7E, size: 0x8, addend: 0x0, symName: __ZNSt3__129_AllocatorDestroyRangeReverseINS_9allocatorIN6emplex5TokenEEENS_16reverse_iteratorIPS3_EEEC1B8ne180100ERS4_RS7_SA_, symObjAddr: 0x55DC, symBinAddr: 0x100008190, symSize: 0x44 }
  - { offset: 0x27DD5, size: 0x8, addend: 0x0, symName: __ZNSt3__116allocator_traitsINS_9allocatorIN6emplex5TokenEEEE9constructB8ne180100IS3_JS3_EvvEEvRS4_PT_DpOT0_, symObjAddr: 0x5668, symBinAddr: 0x10000821C, symSize: 0x30 }
  - { offset: 0x27E2A, size: 0x8, addend: 0x0, symName: __ZNKSt3__116reverse_iteratorIPN6emplex5TokenEEdeB8ne180100Ev, symObjAddr: 0x56BC, symBinAddr: 0x100008270, symSize: 0x28 }
  - { offset: 0x27E5E, size: 0x8, addend: 0x0, symName: __ZNSt3__116reverse_iteratorIPN6emplex5TokenEEppB8ne180100Ev, symObjAddr: 0x56E4, symBinAddr: 0x100008298, symSize: 0x20 }
  - { offset: 0x27E84, size: 0x8, addend: 0x0, symName: __ZNSt3__128__exception_guard_exceptionsINS_29_AllocatorDestroyRangeReverseINS_9allocatorIN6emplex5TokenEEENS_16reverse_iteratorIPS4_EEEEE10__completeB8ne180100Ev, symObjAddr: 0x5704, symBinAddr: 0x1000082B8, symSize: 0x1C }
  - { offset: 0x27EAA, size: 0x8, addend: 0x0, symName: __ZNSt3__128__exception_guard_exceptionsINS_29_AllocatorDestroyRangeReverseINS_9allocatorIN6emplex5TokenEEENS_16reverse_iteratorIPS4_EEEEED1B8ne180100Ev, symObjAddr: 0x5720, symBinAddr: 0x1000082D4, symSize: 0x2C }
  - { offset: 0x27ED4, size: 0x8, addend: 0x0, symName: __ZNSt3__128__exception_guard_exceptionsINS_29_AllocatorDestroyRangeReverseINS_9allocatorIN6emplex5TokenEEENS_16reverse_iteratorIPS4_EEEEEC1B8ne180100ES9_, symObjAddr: 0x574C, symBinAddr: 0x100008300, symSize: 0x34 }
  - { offset: 0x27F0D, size: 0x8, addend: 0x0, symName: __ZNSt3__128__exception_guard_exceptionsINS_29_AllocatorDestroyRangeReverseINS_9allocatorIN6emplex5TokenEEENS_16reverse_iteratorIPS4_EEEEEC2B8ne180100ES9_, symObjAddr: 0x5780, symBinAddr: 0x100008334, symSize: 0x30 }
  - { offset: 0x27F46, size: 0x8, addend: 0x0, symName: __ZNSt3__129_AllocatorDestroyRangeReverseINS_9allocatorIN6emplex5TokenEEENS_16reverse_iteratorIPS3_EEEC2B8ne180100ERS4_RS7_SA_, symObjAddr: 0x57B0, symBinAddr: 0x100008364, symSize: 0x38 }
  - { offset: 0x27FA3, size: 0x8, addend: 0x0, symName: __ZNSt3__119__to_address_helperINS_16reverse_iteratorIPN6emplex5TokenEEEvE6__callB8ne180100ERKS5_, symObjAddr: 0x5848, symBinAddr: 0x1000083FC, symSize: 0x38 }
  - { offset: 0x27FC6, size: 0x8, addend: 0x0, symName: __ZNKSt3__116reverse_iteratorIPN6emplex5TokenEEptB8ne180100Ev, symObjAddr: 0x5880, symBinAddr: 0x100008434, symSize: 0x2C }
  - { offset: 0x27FEC, size: 0x8, addend: 0x0, symName: __ZNSt3__128__exception_guard_exceptionsINS_29_AllocatorDestroyRangeReverseINS_9allocatorIN6emplex5TokenEEENS_16reverse_iteratorIPS4_EEEEED2B8ne180100Ev, symObjAddr: 0x5964, symBinAddr: 0x100008518, symSize: 0x50 }
  - { offset: 0x28016, size: 0x8, addend: 0x0, symName: __ZNKSt3__129_AllocatorDestroyRangeReverseINS_9allocatorIN6emplex5TokenEEENS_16reverse_iteratorIPS3_EEEclB8ne180100Ev, symObjAddr: 0x59B4, symBinAddr: 0x100008568, symSize: 0xB4 }
  - { offset: 0x2803D, size: 0x8, addend: 0x0, symName: __ZNSt3__116reverse_iteratorINS0_IPN6emplex5TokenEEEEC1B8ne180100ES4_, symObjAddr: 0x5AD8, symBinAddr: 0x10000868C, symSize: 0x3C }
  - { offset: 0x28075, size: 0x8, addend: 0x0, symName: __ZNSt3__116allocator_traitsINS_9allocatorIN6emplex5TokenEEEE7destroyB8ne180100IS3_vvEEvRS4_PT_, symObjAddr: 0x5B74, symBinAddr: 0x100008728, symSize: 0x28 }
  - { offset: 0x280B0, size: 0x8, addend: 0x0, symName: __ZNSt3__116reverse_iteratorINS0_IPN6emplex5TokenEEEEppB8ne180100Ev, symObjAddr: 0x5BC0, symBinAddr: 0x100008774, symSize: 0x30 }
  - { offset: 0x280D6, size: 0x8, addend: 0x0, symName: __ZNKSt3__116reverse_iteratorINS0_IPN6emplex5TokenEEEE4baseB8ne180100Ev, symObjAddr: 0x5BF0, symBinAddr: 0x1000087A4, symSize: 0x24 }
  - { offset: 0x28102, size: 0x8, addend: 0x0, symName: __ZNSt3__119__to_address_helperINS_16reverse_iteratorINS1_IPN6emplex5TokenEEEEEvE6__callB8ne180100ERKS6_, symObjAddr: 0x5C38, symBinAddr: 0x1000087EC, symSize: 0x38 }
  - { offset: 0x28125, size: 0x8, addend: 0x0, symName: __ZNKSt3__116reverse_iteratorINS0_IPN6emplex5TokenEEEEptB8ne180100Ev, symObjAddr: 0x5C70, symBinAddr: 0x100008824, symSize: 0x4C }
  - { offset: 0x2814B, size: 0x8, addend: 0x0, symName: __ZNSt3__116reverse_iteratorIPN6emplex5TokenEEpLB8ne180100El, symObjAddr: 0x5D6C, symBinAddr: 0x100008920, symSize: 0x30 }
  - { offset: 0x2817F, size: 0x8, addend: 0x0, symName: __ZNSt3__116reverse_iteratorIPN6emplex5TokenEEmmB8ne180100Ev, symObjAddr: 0x5D9C, symBinAddr: 0x100008950, symSize: 0x20 }
  - { offset: 0x281A5, size: 0x8, addend: 0x0, symName: __ZNSt3__116reverse_iteratorINS0_IPN6emplex5TokenEEEEC2B8ne180100ES4_, symObjAddr: 0x5DBC, symBinAddr: 0x100008970, symSize: 0x2C }
  - { offset: 0x281DD, size: 0x8, addend: 0x0, symName: __ZNSt3__116reverse_iteratorIPN6emplex5TokenEEC2B8ne180100ES3_, symObjAddr: 0x5DE8, symBinAddr: 0x10000899C, symSize: 0x28 }
  - { offset: 0x28215, size: 0x8, addend: 0x0, symName: __ZNSt3__114__split_bufferIN6emplex5TokenERNS_9allocatorIS2_EEED2Ev, symObjAddr: 0x5E10, symBinAddr: 0x1000089C4, symSize: 0x8C }
  - { offset: 0x28241, size: 0x8, addend: 0x0, symName: __ZNSt3__114__split_bufferIN6emplex5TokenERNS_9allocatorIS2_EEE5clearB8ne180100Ev, symObjAddr: 0x5E9C, symBinAddr: 0x100008A50, symSize: 0x28 }
  - { offset: 0x28267, size: 0x8, addend: 0x0, symName: __ZNSt3__116allocator_traitsINS_9allocatorIN6emplex5TokenEEEE10deallocateB8ne180100ERS4_PS3_m, symObjAddr: 0x5EC4, symBinAddr: 0x100008A78, symSize: 0x34 }
  - { offset: 0x282A9, size: 0x8, addend: 0x0, symName: __ZNKSt3__114__split_bufferIN6emplex5TokenERNS_9allocatorIS2_EEE8capacityB8ne180100Ev, symObjAddr: 0x5EF8, symBinAddr: 0x100008AAC, symSize: 0x40 }
  - { offset: 0x282CF, size: 0x8, addend: 0x0, symName: __ZNSt3__114__split_bufferIN6emplex5TokenERNS_9allocatorIS2_EEE17__destruct_at_endB8ne180100EPS2_, symObjAddr: 0x5F38, symBinAddr: 0x100008AEC, symSize: 0x2C }
  - { offset: 0x28303, size: 0x8, addend: 0x0, symName: __ZNSt3__114__split_bufferIN6emplex5TokenERNS_9allocatorIS2_EEE17__destruct_at_endB8ne180100EPS2_NS_17integral_constantIbLb0EEE, symObjAddr: 0x5F64, symBinAddr: 0x100008B18, symSize: 0x80 }
  - { offset: 0x28343, size: 0x8, addend: 0x0, symName: __ZNSt3__19allocatorIN6emplex5TokenEE10deallocateB8ne180100EPS2_m, symObjAddr: 0x5FE4, symBinAddr: 0x100008B98, symSize: 0x44 }
  - { offset: 0x28385, size: 0x8, addend: 0x0, symName: __ZNKSt3__114__split_bufferIN6emplex5TokenERNS_9allocatorIS2_EEE9__end_capB8ne180100Ev, symObjAddr: 0x6028, symBinAddr: 0x100008BDC, symSize: 0x28 }
  - { offset: 0x283AB, size: 0x8, addend: 0x0, symName: __ZNKSt3__117__compressed_pairIPN6emplex5TokenERNS_9allocatorIS2_EEE5firstB8ne180100Ev, symObjAddr: 0x6050, symBinAddr: 0x100008C04, symSize: 0x24 }
  - { offset: 0x283D1, size: 0x8, addend: 0x0, symName: __ZNSt3__119istreambuf_iteratorIcNS_11char_traitsIcEEEC2B8ne180100ERNS_13basic_istreamIcS2_EE, symObjAddr: 0x6074, symBinAddr: 0x100008C28, symSize: 0x54 }
  - { offset: 0x28409, size: 0x8, addend: 0x0, symName: __ZNKSt3__19basic_iosIcNS_11char_traitsIcEEE5rdbufB8ne180100Ev, symObjAddr: 0x60C8, symBinAddr: 0x100008C7C, symSize: 0x24 }
  - { offset: 0x28431, size: 0x8, addend: 0x0, symName: __ZNKSt3__18ios_base5rdbufB8ne180100Ev, symObjAddr: 0x60EC, symBinAddr: 0x100008CA0, symSize: 0x18 }
  - { offset: 0x28457, size: 0x8, addend: 0x0, symName: __ZNSt3__119istreambuf_iteratorIcNS_11char_traitsIcEEEC2B8ne180100Ev, symObjAddr: 0x6104, symBinAddr: 0x100008CB8, symSize: 0x18 }
  - { offset: 0x28481, size: 0x8, addend: 0x0, symName: __ZNSt3__112basic_stringIcNS_11char_traitsIcEENS_9allocatorIcEEEC2B8ne180100INS_19istreambuf_iteratorIcS2_EELi0EEET_S9_, symObjAddr: 0x611C, symBinAddr: 0x100008CD0, symSize: 0x5C }
  - { offset: 0x284D8, size: 0x8, addend: 0x0, symName: __ZNSt3__112basic_stringIcNS_11char_traitsIcEENS_9allocatorIcEEE6__initINS_19istreambuf_iteratorIcS2_EELi0EEEvT_S9_, symObjAddr: 0x6178, symBinAddr: 0x100008D2C, symSize: 0x44 }
  - { offset: 0x2852D, size: 0x8, addend: 0x0, symName: __ZNSt3__112basic_stringIcNS_11char_traitsIcEENS_9allocatorIcEEE20__init_with_sentinelB8ne180100INS_19istreambuf_iteratorIcS2_EES8_EEvT_T0_, symObjAddr: 0x61BC, symBinAddr: 0x100008D70, symSize: 0x158 }
  - { offset: 0x28585, size: 0x8, addend: 0x0, symName: __ZNKSt3__119istreambuf_iteratorIcNS_11char_traitsIcEEEdeB8ne180100Ev, symObjAddr: 0x6344, symBinAddr: 0x100008EF8, symSize: 0x2C }
  - { offset: 0x285AB, size: 0x8, addend: 0x0, symName: __ZNSt3__119istreambuf_iteratorIcNS_11char_traitsIcEEEppB8ne180100Ev, symObjAddr: 0x6370, symBinAddr: 0x100008F24, symSize: 0x30 }
  - { offset: 0x285D1, size: 0x8, addend: 0x0, symName: __ZNSt3__116allocator_traitsINS_9allocatorIcEEE10deallocateB8ne180100ERS2_Pcm, symObjAddr: 0x63A0, symBinAddr: 0x100008F54, symSize: 0x34 }
  - { offset: 0x28613, size: 0x8, addend: 0x0, symName: __ZNSt3__112basic_stringIcNS_11char_traitsIcEENS_9allocatorIcEEE7__allocB8ne180100Ev, symObjAddr: 0x63D4, symBinAddr: 0x100008F88, symSize: 0x24 }
  - { offset: 0x28639, size: 0x8, addend: 0x0, symName: __ZNKSt3__112basic_stringIcNS_11char_traitsIcEENS_9allocatorIcEEE14__get_long_capB8ne180100Ev, symObjAddr: 0x63F8, symBinAddr: 0x100008FAC, symSize: 0x30 }
  - { offset: 0x2865F, size: 0x8, addend: 0x0, symName: __ZNKSt3__119istreambuf_iteratorIcNS_11char_traitsIcEEE5equalB8ne180100ERKS3_, symObjAddr: 0x6428, symBinAddr: 0x100008FDC, symSize: 0x4C }
  - { offset: 0x28693, size: 0x8, addend: 0x0, symName: __ZNKSt3__119istreambuf_iteratorIcNS_11char_traitsIcEEE14__test_for_eofB8ne180100Ev, symObjAddr: 0x6474, symBinAddr: 0x100009028, symSize: 0x80 }
  - { offset: 0x286B9, size: 0x8, addend: 0x0, symName: __ZNSt3__111char_traitsIcE11eq_int_typeB8ne180100Eii, symObjAddr: 0x64F4, symBinAddr: 0x1000090A8, symSize: 0x28 }
  - { offset: 0x286EC, size: 0x8, addend: 0x0, symName: __ZNSt3__115basic_streambufIcNS_11char_traitsIcEEE5sgetcB8ne180100Ev, symObjAddr: 0x651C, symBinAddr: 0x1000090D0, symSize: 0x70 }
  - { offset: 0x28712, size: 0x8, addend: 0x0, symName: __ZNSt3__111char_traitsIcE11to_int_typeB8ne180100Ec, symObjAddr: 0x658C, symBinAddr: 0x100009140, symSize: 0x14 }
  - { offset: 0x28736, size: 0x8, addend: 0x0, symName: __ZNSt3__115basic_streambufIcNS_11char_traitsIcEEE6sbumpcB8ne180100Ev, symObjAddr: 0x65A0, symBinAddr: 0x100009154, symSize: 0x78 }
  - { offset: 0x2875C, size: 0x8, addend: 0x0, symName: __ZNSt3__19allocatorIcE10deallocateB8ne180100EPcm, symObjAddr: 0x6618, symBinAddr: 0x1000091CC, symSize: 0x40 }
  - { offset: 0x2879E, size: 0x8, addend: 0x0, symName: __ZNSt3__117__compressed_pairINS_12basic_stringIcNS_11char_traitsIcEENS_9allocatorIcEEE5__repES5_E6secondB8ne180100Ev, symObjAddr: 0x6658, symBinAddr: 0x10000920C, symSize: 0x24 }
  - { offset: 0x287C4, size: 0x8, addend: 0x0, symName: __ZNSt3__122__compressed_pair_elemINS_9allocatorIcEELi1ELb1EE5__getB8ne180100Ev, symObjAddr: 0x667C, symBinAddr: 0x100009230, symSize: 0x14 }
  - { offset: 0x287EA, size: 0x8, addend: 0x0, symName: __ZNSt3__16vectorIN6emplex5TokenENS_9allocatorIS2_EEE13__move_assignERS5_NS_17integral_constantIbLb1EEE, symObjAddr: 0x6690, symBinAddr: 0x100009244, symSize: 0x94 }
  - { offset: 0x2882D, size: 0x8, addend: 0x0, symName: __ZNSt3__16vectorIN6emplex5TokenENS_9allocatorIS2_EEE13__vdeallocateEv, symObjAddr: 0x6724, symBinAddr: 0x1000092D8, symSize: 0x94 }
  - { offset: 0x28855, size: 0x8, addend: 0x0, symName: __ZNSt3__16vectorIN6emplex5TokenENS_9allocatorIS2_EEE19__move_assign_allocB8ne180100ERS5_, symObjAddr: 0x67B8, symBinAddr: 0x10000936C, symSize: 0x2C }
  - { offset: 0x2888A, size: 0x8, addend: 0x0, symName: __ZNSt3__16vectorIN6emplex5TokenENS_9allocatorIS2_EEE5clearB8ne180100Ev, symObjAddr: 0x67E4, symBinAddr: 0x100009398, symSize: 0x44 }
  - { offset: 0x288BF, size: 0x8, addend: 0x0, symName: __ZNSt3__16vectorIN6emplex5TokenENS_9allocatorIS2_EEE7__clearB8ne180100Ev, symObjAddr: 0x6828, symBinAddr: 0x1000093DC, symSize: 0x28 }
  - { offset: 0x288E5, size: 0x8, addend: 0x0, symName: __ZNKSt3__16vectorIN6emplex5TokenENS_9allocatorIS2_EEE17__annotate_shrinkB8ne180100Em, symObjAddr: 0x6850, symBinAddr: 0x100009404, symSize: 0x14 }
  - { offset: 0x2891A, size: 0x8, addend: 0x0, symName: __ZNSt3__16vectorIN6emplex5TokenENS_9allocatorIS2_EEE22__base_destruct_at_endB8ne180100EPS2_, symObjAddr: 0x6864, symBinAddr: 0x100009418, symSize: 0x8C }
  - { offset: 0x2895E, size: 0x8, addend: 0x0, symName: __ZNSt3__16vectorIN6emplex5TokenENS_9allocatorIS2_EEE19__move_assign_allocB8ne180100ERS5_NS_17integral_constantIbLb1EEE, symObjAddr: 0x68F0, symBinAddr: 0x1000094A4, symSize: 0x38 }
  - { offset: 0x2899F, size: 0x8, addend: 0x0, symName: __ZNSt3__16vectorIN6emplex5TokenENS_9allocatorIS2_EEED2B8ne180100Ev, symObjAddr: 0x6928, symBinAddr: 0x1000094DC, symSize: 0x44 }
  - { offset: 0x289C9, size: 0x8, addend: 0x0, symName: __ZNSt3__16vectorIN6emplex5TokenENS_9allocatorIS2_EEE16__destroy_vectorC1B8ne180100ERS5_, symObjAddr: 0x696C, symBinAddr: 0x100009520, symSize: 0x34 }
  - { offset: 0x28A02, size: 0x8, addend: 0x0, symName: __ZNSt3__16vectorIN6emplex5TokenENS_9allocatorIS2_EEE16__destroy_vectorclB8ne180100Ev, symObjAddr: 0x69A0, symBinAddr: 0x100009554, symSize: 0x90 }
  - { offset: 0x28A28, size: 0x8, addend: 0x0, symName: __ZNSt3__16vectorIN6emplex5TokenENS_9allocatorIS2_EEE16__destroy_vectorC2B8ne180100ERS5_, symObjAddr: 0x6A30, symBinAddr: 0x1000095E4, symSize: 0x20 }
  - { offset: 0x28AE4, size: 0x8, addend: 0x0, symName: __ZNSt3__118basic_stringstreamIcNS_11char_traitsIcEENS_9allocatorIcEEEC1B8ne180100Ev, symObjAddr: 0x6A50, symBinAddr: 0x100009604, symSize: 0xF4 }
  - { offset: 0x28B0E, size: 0x8, addend: 0x0, symName: __ZNKRSt3__118basic_stringstreamIcNS_11char_traitsIcEENS_9allocatorIcEEE3strB8ne180100Ev, symObjAddr: 0x6B44, symBinAddr: 0x1000096F8, symSize: 0x30 }
  - { offset: 0x28B39, size: 0x8, addend: 0x0, symName: __ZNSt3__118basic_stringstreamIcNS_11char_traitsIcEENS_9allocatorIcEEED1Ev, symObjAddr: 0x6B74, symBinAddr: 0x100009728, symSize: 0x40 }
  - { offset: 0x28B66, size: 0x8, addend: 0x0, symName: __ZNSt3__114basic_iostreamIcNS_11char_traitsIcEEEC2B8ne180100EPNS_15basic_streambufIcS2_EE, symObjAddr: 0x6BB4, symBinAddr: 0x100009768, symSize: 0xAC }
  - { offset: 0x28BAC, size: 0x8, addend: 0x0, symName: __ZNSt3__115basic_stringbufIcNS_11char_traitsIcEENS_9allocatorIcEEEC1B8ne180100Ej, symObjAddr: 0x6C60, symBinAddr: 0x100009814, symSize: 0x34 }
  - { offset: 0x28BE5, size: 0x8, addend: 0x0, symName: __ZNSt3__113basic_istreamIcNS_11char_traitsIcEEEC2B8ne180100EPNS_15basic_streambufIcS2_EE, symObjAddr: 0x6C94, symBinAddr: 0x100009848, symSize: 0x64 }
  - { offset: 0x28C2A, size: 0x8, addend: 0x0, symName: __ZNSt3__113basic_ostreamIcNS_11char_traitsIcEEEC2B8ne180100Ev, symObjAddr: 0x6CF8, symBinAddr: 0x1000098AC, symSize: 0x34 }
  - { offset: 0x28C61, size: 0x8, addend: 0x0, symName: __ZNSt3__115basic_stringbufIcNS_11char_traitsIcEENS_9allocatorIcEEEC2B8ne180100Ej, symObjAddr: 0x6D2C, symBinAddr: 0x1000098E0, symSize: 0x58 }
  - { offset: 0x28C9A, size: 0x8, addend: 0x0, symName: __ZNKRSt3__115basic_stringbufIcNS_11char_traitsIcEENS_9allocatorIcEEE3strB8ne180100Ev, symObjAddr: 0x6D84, symBinAddr: 0x100009938, symSize: 0x44 }
  - { offset: 0x28CC0, size: 0x8, addend: 0x0, symName: __ZNKSt3__115basic_stringbufIcNS_11char_traitsIcEENS_9allocatorIcEEE3strB8ne180100IS4_EENS_12basic_stringIcS2_T_EERKS8_, symObjAddr: 0x6DC8, symBinAddr: 0x10000997C, symSize: 0x50 }
  - { offset: 0x28CFE, size: 0x8, addend: 0x0, symName: __ZNKSt3__112basic_stringIcNS_11char_traitsIcEENS_9allocatorIcEEE13get_allocatorB8ne180100Ev, symObjAddr: 0x6E18, symBinAddr: 0x1000099CC, symSize: 0x24 }
  - { offset: 0x28D24, size: 0x8, addend: 0x0, symName: __ZNKSt3__115basic_stringbufIcNS_11char_traitsIcEENS_9allocatorIcEEE4viewB8ne180100Ev, symObjAddr: 0x6E3C, symBinAddr: 0x1000099F0, symSize: 0x120 }
  - { offset: 0x28D4C, size: 0x8, addend: 0x0, symName: __ZNSt3__112basic_stringIcNS_11char_traitsIcEENS_9allocatorIcEEEC1INS_17basic_string_viewIcS2_EELi0EEERKT_RKS4_, symObjAddr: 0x6F5C, symBinAddr: 0x100009B10, symSize: 0x3C }
  - { offset: 0x28DA3, size: 0x8, addend: 0x0, symName: __ZNKSt3__115basic_streambufIcNS_11char_traitsIcEEE4pptrB8ne180100Ev, symObjAddr: 0x6F98, symBinAddr: 0x100009B4C, symSize: 0x18 }
  - { offset: 0x28DC9, size: 0x8, addend: 0x0, symName: __ZNKSt3__115basic_streambufIcNS_11char_traitsIcEEE5pbaseB8ne180100Ev, symObjAddr: 0x6FB0, symBinAddr: 0x100009B64, symSize: 0x18 }
  - { offset: 0x28DF4, size: 0x8, addend: 0x0, symName: __ZNSt3__117basic_string_viewIcNS_11char_traitsIcEEEC1B8ne180100IPcS5_EET_T0_, symObjAddr: 0x6FC8, symBinAddr: 0x100009B7C, symSize: 0x3C }
  - { offset: 0x28E4E, size: 0x8, addend: 0x0, symName: __ZNKSt3__115basic_streambufIcNS_11char_traitsIcEEE5ebackB8ne180100Ev, symObjAddr: 0x7004, symBinAddr: 0x100009BB8, symSize: 0x18 }
  - { offset: 0x28E74, size: 0x8, addend: 0x0, symName: __ZNKSt3__115basic_streambufIcNS_11char_traitsIcEEE5egptrB8ne180100Ev, symObjAddr: 0x701C, symBinAddr: 0x100009BD0, symSize: 0x18 }
  - { offset: 0x28E9A, size: 0x8, addend: 0x0, symName: __ZNSt3__117basic_string_viewIcNS_11char_traitsIcEEEC2B8ne180100IPcS5_EET_T0_, symObjAddr: 0x7034, symBinAddr: 0x100009BE8, symSize: 0x50 }
  - { offset: 0x28EF4, size: 0x8, addend: 0x0, symName: __ZNSt3__112basic_stringIcNS_11char_traitsIcEENS_9allocatorIcEEEC2INS_17basic_string_viewIcS2_EELi0EEERKT_RKS4_, symObjAddr: 0x70BC, symBinAddr: 0x100009C70, symSize: 0x74 }
  - { offset: 0x28F68, size: 0x8, addend: 0x0, symName: __ZNSt3__117__compressed_pairINS_12basic_stringIcNS_11char_traitsIcEENS_9allocatorIcEEE5__repES5_EC1B8ne180100INS_18__default_init_tagERKS5_EEOT_OT0_, symObjAddr: 0x7130, symBinAddr: 0x100009CE4, symSize: 0x3C }
  - { offset: 0x28FC0, size: 0x8, addend: 0x0, symName: __ZNSt3__117__compressed_pairINS_12basic_stringIcNS_11char_traitsIcEENS_9allocatorIcEEE5__repES5_EC2B8ne180100INS_18__default_init_tagERKS5_EEOT_OT0_, symObjAddr: 0x716C, symBinAddr: 0x100009D20, symSize: 0x40 }
  - { offset: 0x29018, size: 0x8, addend: 0x0, symName: __ZNSt3__122__compressed_pair_elemINS_9allocatorIcEELi1ELb1EEC2B8ne180100IRKS2_vEEOT_, symObjAddr: 0x71AC, symBinAddr: 0x100009D60, symSize: 0x18 }
  - { offset: 0x2905A, size: 0x8, addend: 0x0, symName: __ZNKSt3__112basic_stringIcNS_11char_traitsIcEENS_9allocatorIcEEE7__allocB8ne180100Ev, symObjAddr: 0x71C4, symBinAddr: 0x100009D78, symSize: 0x24 }
  - { offset: 0x29080, size: 0x8, addend: 0x0, symName: __ZNKSt3__117__compressed_pairINS_12basic_stringIcNS_11char_traitsIcEENS_9allocatorIcEEE5__repES5_E6secondB8ne180100Ev, symObjAddr: 0x71E8, symBinAddr: 0x100009D9C, symSize: 0x24 }
  - { offset: 0x290A6, size: 0x8, addend: 0x0, symName: __ZNKSt3__122__compressed_pair_elemINS_9allocatorIcEELi1ELb1EE5__getB8ne180100Ev, symObjAddr: 0x720C, symBinAddr: 0x100009DC0, symSize: 0x14 }
  - { offset: 0x290CC, size: 0x8, addend: 0x0, symName: __ZNSt3__118basic_stringstreamIcNS_11char_traitsIcEENS_9allocatorIcEEED2Ev, symObjAddr: 0x7220, symBinAddr: 0x100009DD4, symSize: 0x6C }
  - { offset: 0x29106, size: 0x8, addend: 0x0, symName: __ZThn16_NSt3__118basic_stringstreamIcNS_11char_traitsIcEENS_9allocatorIcEEED1Ev, symObjAddr: 0x728C, symBinAddr: 0x100009E40, symSize: 0x1C }
  - { offset: 0x2911D, size: 0x8, addend: 0x0, symName: __ZTv0_n24_NSt3__118basic_stringstreamIcNS_11char_traitsIcEENS_9allocatorIcEEED1Ev, symObjAddr: 0x72A8, symBinAddr: 0x100009E5C, symSize: 0x28 }
  - { offset: 0x29139, size: 0x8, addend: 0x0, symName: __ZNSt3__115basic_stringbufIcNS_11char_traitsIcEENS_9allocatorIcEEED1Ev, symObjAddr: 0x72D0, symBinAddr: 0x100009E84, symSize: 0x2C }
  - { offset: 0x29166, size: 0x8, addend: 0x0, symName: __ZNSt3__115basic_stringbufIcNS_11char_traitsIcEENS_9allocatorIcEEED2Ev, symObjAddr: 0x72FC, symBinAddr: 0x100009EB0, symSize: 0x48 }
  - { offset: 0x29193, size: 0x8, addend: 0x0, symName: __ZNSt3__110shared_ptrI7ASTNodeED2B8ne180100Ev, symObjAddr: 0x7344, symBinAddr: 0x100009EF8, symSize: 0x54 }
  - { offset: 0x291BD, size: 0x8, addend: 0x0, symName: __ZNSt3__119__shared_weak_count16__release_sharedB8ne180100Ev, symObjAddr: 0x7398, symBinAddr: 0x100009F4C, symSize: 0x3C }
  - { offset: 0x291E3, size: 0x8, addend: 0x0, symName: __ZNSt3__114__shared_count16__release_sharedB8ne180100Ev, symObjAddr: 0x73D4, symBinAddr: 0x100009F88, symSize: 0x7C }
  - { offset: 0x29209, size: 0x8, addend: 0x0, symName: __ZN11SymbolTableD2Ev, symObjAddr: 0x7480, symBinAddr: 0x10000A034, symSize: 0x38 }
  - { offset: 0x29235, size: 0x8, addend: 0x0, symName: __ZNSt3__16vectorINS_10shared_ptrI3VarEENS_9allocatorIS3_EEED1B8ne180100Ev, symObjAddr: 0x74B8, symBinAddr: 0x10000A06C, symSize: 0x2C }
  - { offset: 0x2925F, size: 0x8, addend: 0x0, symName: __ZNSt3__16vectorI8VarTableNS_9allocatorIS1_EEED1B8ne180100Ev, symObjAddr: 0x74E4, symBinAddr: 0x10000A098, symSize: 0x2C }
  - { offset: 0x29289, size: 0x8, addend: 0x0, symName: __ZNSt3__16vectorINS_10shared_ptrI3VarEENS_9allocatorIS3_EEED2B8ne180100Ev, symObjAddr: 0x7510, symBinAddr: 0x10000A0C4, symSize: 0x44 }
  - { offset: 0x292B3, size: 0x8, addend: 0x0, symName: __ZNSt3__16vectorINS_10shared_ptrI3VarEENS_9allocatorIS3_EEE16__destroy_vectorC1B8ne180100ERS6_, symObjAddr: 0x7554, symBinAddr: 0x10000A108, symSize: 0x34 }
  - { offset: 0x292EC, size: 0x8, addend: 0x0, symName: __ZNSt3__16vectorINS_10shared_ptrI3VarEENS_9allocatorIS3_EEE16__destroy_vectorclB8ne180100Ev, symObjAddr: 0x7588, symBinAddr: 0x10000A13C, symSize: 0x90 }
  - { offset: 0x29312, size: 0x8, addend: 0x0, symName: __ZNSt3__16vectorINS_10shared_ptrI3VarEENS_9allocatorIS3_EEE16__destroy_vectorC2B8ne180100ERS6_, symObjAddr: 0x7618, symBinAddr: 0x10000A1CC, symSize: 0x20 }
  - { offset: 0x2934B, size: 0x8, addend: 0x0, symName: __ZNSt3__16vectorINS_10shared_ptrI3VarEENS_9allocatorIS3_EEE7__clearB8ne180100Ev, symObjAddr: 0x7638, symBinAddr: 0x10000A1EC, symSize: 0x28 }
  - { offset: 0x29371, size: 0x8, addend: 0x0, symName: __ZNKSt3__16vectorINS_10shared_ptrI3VarEENS_9allocatorIS3_EEE17__annotate_deleteB8ne180100Ev, symObjAddr: 0x7660, symBinAddr: 0x10000A214, symSize: 0x10 }
  - { offset: 0x29397, size: 0x8, addend: 0x0, symName: __ZNSt3__116allocator_traitsINS_9allocatorINS_10shared_ptrI3VarEEEEE10deallocateB8ne180100ERS5_PS4_m, symObjAddr: 0x7670, symBinAddr: 0x10000A224, symSize: 0x34 }
  - { offset: 0x293D9, size: 0x8, addend: 0x0, symName: __ZNSt3__16vectorINS_10shared_ptrI3VarEENS_9allocatorIS3_EEE7__allocB8ne180100Ev, symObjAddr: 0x76A4, symBinAddr: 0x10000A258, symSize: 0x28 }
  - { offset: 0x293FF, size: 0x8, addend: 0x0, symName: __ZNKSt3__16vectorINS_10shared_ptrI3VarEENS_9allocatorIS3_EEE8capacityB8ne180100Ev, symObjAddr: 0x76CC, symBinAddr: 0x10000A280, symSize: 0x40 }
  - { offset: 0x29425, size: 0x8, addend: 0x0, symName: __ZNSt3__16vectorINS_10shared_ptrI3VarEENS_9allocatorIS3_EEE22__base_destruct_at_endB8ne180100EPS3_, symObjAddr: 0x770C, symBinAddr: 0x10000A2C0, symSize: 0x8C }
  - { offset: 0x29469, size: 0x8, addend: 0x0, symName: __ZNSt3__116allocator_traitsINS_9allocatorINS_10shared_ptrI3VarEEEEE7destroyB8ne180100IS4_vvEEvRS5_PT_, symObjAddr: 0x7798, symBinAddr: 0x10000A34C, symSize: 0x28 }
  - { offset: 0x294A4, size: 0x8, addend: 0x0, symName: __ZNSt3__110shared_ptrI3VarED1B8ne180100Ev, symObjAddr: 0x77F8, symBinAddr: 0x10000A3AC, symSize: 0x2C }
  - { offset: 0x294CE, size: 0x8, addend: 0x0, symName: __ZNSt3__110shared_ptrI3VarED2B8ne180100Ev, symObjAddr: 0x7824, symBinAddr: 0x10000A3D8, symSize: 0x54 }
  - { offset: 0x294F8, size: 0x8, addend: 0x0, symName: __ZNSt3__19allocatorINS_10shared_ptrI3VarEEE10deallocateB8ne180100EPS3_m, symObjAddr: 0x7878, symBinAddr: 0x10000A42C, symSize: 0x40 }
  - { offset: 0x2953A, size: 0x8, addend: 0x0, symName: __ZNSt3__117__compressed_pairIPNS_10shared_ptrI3VarEENS_9allocatorIS3_EEE6secondB8ne180100Ev, symObjAddr: 0x78B8, symBinAddr: 0x10000A46C, symSize: 0x24 }
  - { offset: 0x29560, size: 0x8, addend: 0x0, symName: __ZNSt3__122__compressed_pair_elemINS_9allocatorINS_10shared_ptrI3VarEEEELi1ELb1EE5__getB8ne180100Ev, symObjAddr: 0x78DC, symBinAddr: 0x10000A490, symSize: 0x14 }
  - { offset: 0x29586, size: 0x8, addend: 0x0, symName: __ZNKSt3__16vectorINS_10shared_ptrI3VarEENS_9allocatorIS3_EEE9__end_capB8ne180100Ev, symObjAddr: 0x78F0, symBinAddr: 0x10000A4A4, symSize: 0x28 }
  - { offset: 0x295AC, size: 0x8, addend: 0x0, symName: __ZNKSt3__117__compressed_pairIPNS_10shared_ptrI3VarEENS_9allocatorIS3_EEE5firstB8ne180100Ev, symObjAddr: 0x7918, symBinAddr: 0x10000A4CC, symSize: 0x24 }
  - { offset: 0x295D2, size: 0x8, addend: 0x0, symName: __ZNKSt3__122__compressed_pair_elemIPNS_10shared_ptrI3VarEELi0ELb0EE5__getB8ne180100Ev, symObjAddr: 0x793C, symBinAddr: 0x10000A4F0, symSize: 0x14 }
  - { offset: 0x295F8, size: 0x8, addend: 0x0, symName: __ZNSt3__16vectorI8VarTableNS_9allocatorIS1_EEED2B8ne180100Ev, symObjAddr: 0x7950, symBinAddr: 0x10000A504, symSize: 0x44 }
  - { offset: 0x29622, size: 0x8, addend: 0x0, symName: __ZNSt3__16vectorI8VarTableNS_9allocatorIS1_EEE16__destroy_vectorC1B8ne180100ERS4_, symObjAddr: 0x7994, symBinAddr: 0x10000A548, symSize: 0x34 }
  - { offset: 0x2965B, size: 0x8, addend: 0x0, symName: __ZNSt3__16vectorI8VarTableNS_9allocatorIS1_EEE16__destroy_vectorclB8ne180100Ev, symObjAddr: 0x79C8, symBinAddr: 0x10000A57C, symSize: 0x90 }
  - { offset: 0x29681, size: 0x8, addend: 0x0, symName: __ZNSt3__16vectorI8VarTableNS_9allocatorIS1_EEE16__destroy_vectorC2B8ne180100ERS4_, symObjAddr: 0x7A58, symBinAddr: 0x10000A60C, symSize: 0x20 }
  - { offset: 0x296BA, size: 0x8, addend: 0x0, symName: __ZNSt3__16vectorI8VarTableNS_9allocatorIS1_EEE7__clearB8ne180100Ev, symObjAddr: 0x7A78, symBinAddr: 0x10000A62C, symSize: 0x28 }
  - { offset: 0x296E0, size: 0x8, addend: 0x0, symName: __ZNKSt3__16vectorI8VarTableNS_9allocatorIS1_EEE17__annotate_deleteB8ne180100Ev, symObjAddr: 0x7AA0, symBinAddr: 0x10000A654, symSize: 0x10 }
  - { offset: 0x29706, size: 0x8, addend: 0x0, symName: __ZNSt3__116allocator_traitsINS_9allocatorI8VarTableEEE10deallocateB8ne180100ERS3_PS2_m, symObjAddr: 0x7AB0, symBinAddr: 0x10000A664, symSize: 0x34 }
  - { offset: 0x29748, size: 0x8, addend: 0x0, symName: __ZNSt3__16vectorI8VarTableNS_9allocatorIS1_EEE7__allocB8ne180100Ev, symObjAddr: 0x7AE4, symBinAddr: 0x10000A698, symSize: 0x28 }
  - { offset: 0x2976E, size: 0x8, addend: 0x0, symName: __ZNKSt3__16vectorI8VarTableNS_9allocatorIS1_EEE8capacityB8ne180100Ev, symObjAddr: 0x7B0C, symBinAddr: 0x10000A6C0, symSize: 0x40 }
  - { offset: 0x29794, size: 0x8, addend: 0x0, symName: __ZNSt3__16vectorI8VarTableNS_9allocatorIS1_EEE22__base_destruct_at_endB8ne180100EPS1_, symObjAddr: 0x7B4C, symBinAddr: 0x10000A700, symSize: 0x8C }
  - { offset: 0x297D8, size: 0x8, addend: 0x0, symName: __ZNSt3__116allocator_traitsINS_9allocatorI8VarTableEEE7destroyB8ne180100IS2_vvEEvRS3_PT_, symObjAddr: 0x7BD8, symBinAddr: 0x10000A78C, symSize: 0x28 }
  - { offset: 0x29813, size: 0x8, addend: 0x0, symName: __ZN8VarTableD1Ev, symObjAddr: 0x7C38, symBinAddr: 0x10000A7EC, symSize: 0x2C }
  - { offset: 0x2983F, size: 0x8, addend: 0x0, symName: __ZN8VarTableD2Ev, symObjAddr: 0x7C64, symBinAddr: 0x10000A818, symSize: 0x2C }
  - { offset: 0x2986B, size: 0x8, addend: 0x0, symName: __ZNSt3__113unordered_mapINS_12basic_stringIcNS_11char_traitsIcEENS_9allocatorIcEEEENS_10shared_ptrI3VarEENS_4hashIS6_EENS_8equal_toIS6_EENS4_INS_4pairIKS6_S9_EEEEED1B8ne180100Ev, symObjAddr: 0x7C90, symBinAddr: 0x10000A844, symSize: 0x2C }
  - { offset: 0x29895, size: 0x8, addend: 0x0, symName: __ZNSt3__113unordered_mapINS_12basic_stringIcNS_11char_traitsIcEENS_9allocatorIcEEEENS_10shared_ptrI3VarEENS_4hashIS6_EENS_8equal_toIS6_EENS4_INS_4pairIKS6_S9_EEEEED2B8ne180100Ev, symObjAddr: 0x7CBC, symBinAddr: 0x10000A870, symSize: 0x2C }
  - { offset: 0x298BF, size: 0x8, addend: 0x0, symName: __ZNSt3__112__hash_tableINS_17__hash_value_typeINS_12basic_stringIcNS_11char_traitsIcEENS_9allocatorIcEEEENS_10shared_ptrI3VarEEEENS_22__unordered_map_hasherIS7_SB_NS_4hashIS7_EENS_8equal_toIS7_EELb1EEENS_21__unordered_map_equalIS7_SB_SG_SE_Lb1EEENS5_ISB_EEED1Ev, symObjAddr: 0x7CE8, symBinAddr: 0x10000A89C, symSize: 0x2C }
  - { offset: 0x298EB, size: 0x8, addend: 0x0, symName: __ZNSt3__112__hash_tableINS_17__hash_value_typeINS_12basic_stringIcNS_11char_traitsIcEENS_9allocatorIcEEEENS_10shared_ptrI3VarEEEENS_22__unordered_map_hasherIS7_SB_NS_4hashIS7_EENS_8equal_toIS7_EELb1EEENS_21__unordered_map_equalIS7_SB_SG_SE_Lb1EEENS5_ISB_EEED2Ev, symObjAddr: 0x7D14, symBinAddr: 0x10000A8C8, symSize: 0x48 }
  - { offset: 0x29917, size: 0x8, addend: 0x0, symName: __ZNSt3__112__hash_tableINS_17__hash_value_typeINS_12basic_stringIcNS_11char_traitsIcEENS_9allocatorIcEEEENS_10shared_ptrI3VarEEEENS_22__unordered_map_hasherIS7_SB_NS_4hashIS7_EENS_8equal_toIS7_EELb1EEENS_21__unordered_map_equalIS7_SB_SG_SE_Lb1EEENS5_ISB_EEE17__deallocate_nodeEPNS_16__hash_node_baseIPNS_11__hash_nodeISB_PvEEEE, symObjAddr: 0x7D5C, symBinAddr: 0x10000A910, symSize: 0xC0 }
  - { offset: 0x29981, size: 0x8, addend: 0x0, symName: __ZNSt3__117__compressed_pairINS_16__hash_node_baseIPNS_11__hash_nodeINS_17__hash_value_typeINS_12basic_stringIcNS_11char_traitsIcEENS_9allocatorIcEEEENS_10shared_ptrI3VarEEEEPvEEEENS7_ISF_EEE5firstB8ne180100Ev, symObjAddr: 0x7E1C, symBinAddr: 0x10000A9D0, symSize: 0x24 }
  - { offset: 0x299A7, size: 0x8, addend: 0x0, symName: __ZNSt3__110unique_ptrIA_PNS_16__hash_node_baseIPNS_11__hash_nodeINS_17__hash_value_typeINS_12basic_stringIcNS_11char_traitsIcEENS_9allocatorIcEEEENS_10shared_ptrI3VarEEEEPvEEEENS_25__bucket_list_deallocatorINS7_ISI_EEEEED1B8ne180100Ev, symObjAddr: 0x7E40, symBinAddr: 0x10000A9F4, symSize: 0x2C }
  - { offset: 0x299D1, size: 0x8, addend: 0x0, symName: __ZNSt3__112__hash_tableINS_17__hash_value_typeINS_12basic_stringIcNS_11char_traitsIcEENS_9allocatorIcEEEENS_10shared_ptrI3VarEEEENS_22__unordered_map_hasherIS7_SB_NS_4hashIS7_EENS_8equal_toIS7_EELb1EEENS_21__unordered_map_equalIS7_SB_SG_SE_Lb1EEENS5_ISB_EEE12__node_allocB8ne180100Ev, symObjAddr: 0x7E6C, symBinAddr: 0x10000AA20, symSize: 0x28 }
  - { offset: 0x299F7, size: 0x8, addend: 0x0, symName: __ZNSt3__116__hash_node_baseIPNS_11__hash_nodeINS_17__hash_value_typeINS_12basic_stringIcNS_11char_traitsIcEENS_9allocatorIcEEEENS_10shared_ptrI3VarEEEEPvEEE8__upcastB8ne180100Ev, symObjAddr: 0x7E94, symBinAddr: 0x10000AA48, symSize: 0x24 }
  - { offset: 0x29A1D, size: 0x8, addend: 0x0, symName: __ZNSt3__116allocator_traitsINS_9allocatorINS_11__hash_nodeINS_17__hash_value_typeINS_12basic_stringIcNS_11char_traitsIcEENS1_IcEEEENS_10shared_ptrI3VarEEEEPvEEEEE7destroyB8ne180100INS_4pairIKS8_SB_EEvvEEvRSF_PT_, symObjAddr: 0x7EB8, symBinAddr: 0x10000AA6C, symSize: 0x28 }
  - { offset: 0x29A58, size: 0x8, addend: 0x0, symName: __ZNSt3__122__hash_key_value_typesINS_17__hash_value_typeINS_12basic_stringIcNS_11char_traitsIcEENS_9allocatorIcEEEENS_10shared_ptrI3VarEEEEE9__get_ptrB8ne180100ERSB_, symObjAddr: 0x7EE0, symBinAddr: 0x10000AA94, symSize: 0x24 }
  - { offset: 0x29A7B, size: 0x8, addend: 0x0, symName: __ZNSt3__111__hash_nodeINS_17__hash_value_typeINS_12basic_stringIcNS_11char_traitsIcEENS_9allocatorIcEEEENS_10shared_ptrI3VarEEEEPvE11__get_valueB8ne180100Ev, symObjAddr: 0x7F04, symBinAddr: 0x10000AAB8, symSize: 0x18 }
  - { offset: 0x29AA1, size: 0x8, addend: 0x0, symName: __ZNSt3__116allocator_traitsINS_9allocatorINS_11__hash_nodeINS_17__hash_value_typeINS_12basic_stringIcNS_11char_traitsIcEENS1_IcEEEENS_10shared_ptrI3VarEEEEPvEEEEE10deallocateB8ne180100ERSF_PSE_m, symObjAddr: 0x7F40, symBinAddr: 0x10000AAF4, symSize: 0x34 }
  - { offset: 0x29AE3, size: 0x8, addend: 0x0, symName: __ZNSt3__117__compressed_pairINS_16__hash_node_baseIPNS_11__hash_nodeINS_17__hash_value_typeINS_12basic_stringIcNS_11char_traitsIcEENS_9allocatorIcEEEENS_10shared_ptrI3VarEEEEPvEEEENS7_ISF_EEE6secondB8ne180100Ev, symObjAddr: 0x7F74, symBinAddr: 0x10000AB28, symSize: 0x24 }
  - { offset: 0x29B09, size: 0x8, addend: 0x0, symName: __ZNSt3__122__compressed_pair_elemINS_9allocatorINS_11__hash_nodeINS_17__hash_value_typeINS_12basic_stringIcNS_11char_traitsIcEENS1_IcEEEENS_10shared_ptrI3VarEEEEPvEEEELi1ELb1EE5__getB8ne180100Ev, symObjAddr: 0x7F98, symBinAddr: 0x10000AB4C, symSize: 0x14 }
  - { offset: 0x29B2F, size: 0x8, addend: 0x0, symName: __ZNSt3__114pointer_traitsIPNS_16__hash_node_baseIPNS_11__hash_nodeINS_17__hash_value_typeINS_12basic_stringIcNS_11char_traitsIcEENS_9allocatorIcEEEENS_10shared_ptrI3VarEEEEPvEEEEE10pointer_toB8ne180100ERSH_, symObjAddr: 0x7FAC, symBinAddr: 0x10000AB60, symSize: 0x14 }
  - { offset: 0x29B52, size: 0x8, addend: 0x0, symName: __ZNSt3__14pairIKNS_12basic_stringIcNS_11char_traitsIcEENS_9allocatorIcEEEENS_10shared_ptrI3VarEEED1Ev, symObjAddr: 0x7FE4, symBinAddr: 0x10000AB98, symSize: 0x2C }
  - { offset: 0x29B7E, size: 0x8, addend: 0x0, symName: __ZNSt3__14pairIKNS_12basic_stringIcNS_11char_traitsIcEENS_9allocatorIcEEEENS_10shared_ptrI3VarEEED2Ev, symObjAddr: 0x8010, symBinAddr: 0x10000ABC4, symSize: 0x38 }
  - { offset: 0x29BAA, size: 0x8, addend: 0x0, symName: __ZNSt3__117__hash_value_typeINS_12basic_stringIcNS_11char_traitsIcEENS_9allocatorIcEEEENS_10shared_ptrI3VarEEE11__get_valueB8ne180100Ev, symObjAddr: 0x8048, symBinAddr: 0x10000ABFC, symSize: 0x24 }
  - { offset: 0x29BD0, size: 0x8, addend: 0x0, symName: __ZNSt3__111__hash_nodeINS_17__hash_value_typeINS_12basic_stringIcNS_11char_traitsIcEENS_9allocatorIcEEEENS_10shared_ptrI3VarEEEEPvED1B8ne180100Ev, symObjAddr: 0x80A4, symBinAddr: 0x10000AC58, symSize: 0x2C }
  - { offset: 0x29BFA, size: 0x8, addend: 0x0, symName: __ZNSt3__111__hash_nodeINS_17__hash_value_typeINS_12basic_stringIcNS_11char_traitsIcEENS_9allocatorIcEEEENS_10shared_ptrI3VarEEEEPvED2B8ne180100Ev, symObjAddr: 0x80D0, symBinAddr: 0x10000AC84, symSize: 0x14 }
  - { offset: 0x29C24, size: 0x8, addend: 0x0, symName: __ZNSt3__19allocatorINS_11__hash_nodeINS_17__hash_value_typeINS_12basic_stringIcNS_11char_traitsIcEENS0_IcEEEENS_10shared_ptrI3VarEEEEPvEEE10deallocateB8ne180100EPSD_m, symObjAddr: 0x80E4, symBinAddr: 0x10000AC98, symSize: 0x44 }
  - { offset: 0x29C66, size: 0x8, addend: 0x0, symName: __ZNSt3__122__compressed_pair_elemINS_16__hash_node_baseIPNS_11__hash_nodeINS_17__hash_value_typeINS_12basic_stringIcNS_11char_traitsIcEENS_9allocatorIcEEEENS_10shared_ptrI3VarEEEEPvEEEELi0ELb0EE5__getB8ne180100Ev, symObjAddr: 0x8128, symBinAddr: 0x10000ACDC, symSize: 0x14 }
  - { offset: 0x29C8C, size: 0x8, addend: 0x0, symName: __ZNSt3__110unique_ptrIA_PNS_16__hash_node_baseIPNS_11__hash_nodeINS_17__hash_value_typeINS_12basic_stringIcNS_11char_traitsIcEENS_9allocatorIcEEEENS_10shared_ptrI3VarEEEEPvEEEENS_25__bucket_list_deallocatorINS7_ISI_EEEEED2B8ne180100Ev, symObjAddr: 0x813C, symBinAddr: 0x10000ACF0, symSize: 0x30 }
  - { offset: 0x29CB6, size: 0x8, addend: 0x0, symName: __ZNSt3__110unique_ptrIA_PNS_16__hash_node_baseIPNS_11__hash_nodeINS_17__hash_value_typeINS_12basic_stringIcNS_11char_traitsIcEENS_9allocatorIcEEEENS_10shared_ptrI3VarEEEEPvEEEENS_25__bucket_list_deallocatorINS7_ISI_EEEEE5resetB8ne180100EDn, symObjAddr: 0x816C, symBinAddr: 0x10000AD20, symSize: 0x6C }
  - { offset: 0x29CF7, size: 0x8, addend: 0x0, symName: __ZNSt3__117__compressed_pairIPPNS_16__hash_node_baseIPNS_11__hash_nodeINS_17__hash_value_typeINS_12basic_stringIcNS_11char_traitsIcEENS_9allocatorIcEEEENS_10shared_ptrI3VarEEEEPvEEEENS_25__bucket_list_deallocatorINS7_ISI_EEEEE5firstB8ne180100Ev, symObjAddr: 0x81D8, symBinAddr: 0x10000AD8C, symSize: 0x24 }
  - { offset: 0x29D1D, size: 0x8, addend: 0x0, symName: __ZNSt3__117__compressed_pairIPPNS_16__hash_node_baseIPNS_11__hash_nodeINS_17__hash_value_typeINS_12basic_stringIcNS_11char_traitsIcEENS_9allocatorIcEEEENS_10shared_ptrI3VarEEEEPvEEEENS_25__bucket_list_deallocatorINS7_ISI_EEEEE6secondB8ne180100Ev, symObjAddr: 0x81FC, symBinAddr: 0x10000ADB0, symSize: 0x28 }
  - { offset: 0x29D43, size: 0x8, addend: 0x0, symName: __ZNSt3__125__bucket_list_deallocatorINS_9allocatorIPNS_16__hash_node_baseIPNS_11__hash_nodeINS_17__hash_value_typeINS_12basic_stringIcNS_11char_traitsIcEENS1_IcEEEENS_10shared_ptrI3VarEEEEPvEEEEEEEclB8ne180100EPSI_, symObjAddr: 0x8224, symBinAddr: 0x10000ADD8, symSize: 0x58 }
  - { offset: 0x29D78, size: 0x8, addend: 0x0, symName: __ZNSt3__122__compressed_pair_elemIPPNS_16__hash_node_baseIPNS_11__hash_nodeINS_17__hash_value_typeINS_12basic_stringIcNS_11char_traitsIcEENS_9allocatorIcEEEENS_10shared_ptrI3VarEEEEPvEEEELi0ELb0EE5__getB8ne180100Ev, symObjAddr: 0x827C, symBinAddr: 0x10000AE30, symSize: 0x14 }
  - { offset: 0x29D9E, size: 0x8, addend: 0x0, symName: __ZNSt3__122__compressed_pair_elemINS_25__bucket_list_deallocatorINS_9allocatorIPNS_16__hash_node_baseIPNS_11__hash_nodeINS_17__hash_value_typeINS_12basic_stringIcNS_11char_traitsIcEENS2_IcEEEENS_10shared_ptrI3VarEEEEPvEEEEEEEELi1ELb0EE5__getB8ne180100Ev, symObjAddr: 0x8290, symBinAddr: 0x10000AE44, symSize: 0x14 }
  - { offset: 0x29DC4, size: 0x8, addend: 0x0, symName: __ZNSt3__116allocator_traitsINS_9allocatorIPNS_16__hash_node_baseIPNS_11__hash_nodeINS_17__hash_value_typeINS_12basic_stringIcNS_11char_traitsIcEENS1_IcEEEENS_10shared_ptrI3VarEEEEPvEEEEEEE10deallocateB8ne180100ERSJ_PSI_m, symObjAddr: 0x82A4, symBinAddr: 0x10000AE58, symSize: 0x34 }
  - { offset: 0x29E06, size: 0x8, addend: 0x0, symName: __ZNSt3__125__bucket_list_deallocatorINS_9allocatorIPNS_16__hash_node_baseIPNS_11__hash_nodeINS_17__hash_value_typeINS_12basic_stringIcNS_11char_traitsIcEENS1_IcEEEENS_10shared_ptrI3VarEEEEPvEEEEEEE7__allocB8ne180100Ev, symObjAddr: 0x82D8, symBinAddr: 0x10000AE8C, symSize: 0x24 }
  - { offset: 0x29E2C, size: 0x8, addend: 0x0, symName: __ZNSt3__125__bucket_list_deallocatorINS_9allocatorIPNS_16__hash_node_baseIPNS_11__hash_nodeINS_17__hash_value_typeINS_12basic_stringIcNS_11char_traitsIcEENS1_IcEEEENS_10shared_ptrI3VarEEEEPvEEEEEEE4sizeB8ne180100Ev, symObjAddr: 0x82FC, symBinAddr: 0x10000AEB0, symSize: 0x24 }
  - { offset: 0x29E52, size: 0x8, addend: 0x0, symName: __ZNSt3__19allocatorIPNS_16__hash_node_baseIPNS_11__hash_nodeINS_17__hash_value_typeINS_12basic_stringIcNS_11char_traitsIcEENS0_IcEEEENS_10shared_ptrI3VarEEEEPvEEEEE10deallocateB8ne180100EPSH_m, symObjAddr: 0x8320, symBinAddr: 0x10000AED4, symSize: 0x40 }
  - { offset: 0x29E94, size: 0x8, addend: 0x0, symName: __ZNSt3__117__compressed_pairImNS_9allocatorIPNS_16__hash_node_baseIPNS_11__hash_nodeINS_17__hash_value_typeINS_12basic_stringIcNS_11char_traitsIcEENS1_IcEEEENS_10shared_ptrI3VarEEEEPvEEEEEEE6secondB8ne180100Ev, symObjAddr: 0x8360, symBinAddr: 0x10000AF14, symSize: 0x24 }
  - { offset: 0x29EBA, size: 0x8, addend: 0x0, symName: __ZNSt3__122__compressed_pair_elemINS_9allocatorIPNS_16__hash_node_baseIPNS_11__hash_nodeINS_17__hash_value_typeINS_12basic_stringIcNS_11char_traitsIcEENS1_IcEEEENS_10shared_ptrI3VarEEEEPvEEEEEELi1ELb1EE5__getB8ne180100Ev, symObjAddr: 0x8384, symBinAddr: 0x10000AF38, symSize: 0x14 }
  - { offset: 0x29EE0, size: 0x8, addend: 0x0, symName: __ZNSt3__117__compressed_pairImNS_9allocatorIPNS_16__hash_node_baseIPNS_11__hash_nodeINS_17__hash_value_typeINS_12basic_stringIcNS_11char_traitsIcEENS1_IcEEEENS_10shared_ptrI3VarEEEEPvEEEEEEE5firstB8ne180100Ev, symObjAddr: 0x8398, symBinAddr: 0x10000AF4C, symSize: 0x24 }
  - { offset: 0x29F06, size: 0x8, addend: 0x0, symName: __ZNSt3__122__compressed_pair_elemImLi0ELb0EE5__getB8ne180100Ev, symObjAddr: 0x83BC, symBinAddr: 0x10000AF70, symSize: 0x14 }
  - { offset: 0x29F2C, size: 0x8, addend: 0x0, symName: __ZNSt3__19allocatorI8VarTableE10deallocateB8ne180100EPS1_m, symObjAddr: 0x83D0, symBinAddr: 0x10000AF84, symSize: 0x44 }
  - { offset: 0x29F6E, size: 0x8, addend: 0x0, symName: __ZNSt3__117__compressed_pairIP8VarTableNS_9allocatorIS1_EEE6secondB8ne180100Ev, symObjAddr: 0x8414, symBinAddr: 0x10000AFC8, symSize: 0x24 }
  - { offset: 0x29F94, size: 0x8, addend: 0x0, symName: __ZNSt3__122__compressed_pair_elemINS_9allocatorI8VarTableEELi1ELb1EE5__getB8ne180100Ev, symObjAddr: 0x8438, symBinAddr: 0x10000AFEC, symSize: 0x14 }
  - { offset: 0x29FBA, size: 0x8, addend: 0x0, symName: __ZNKSt3__16vectorI8VarTableNS_9allocatorIS1_EEE9__end_capB8ne180100Ev, symObjAddr: 0x844C, symBinAddr: 0x10000B000, symSize: 0x28 }
  - { offset: 0x29FE0, size: 0x8, addend: 0x0, symName: __ZNKSt3__117__compressed_pairIP8VarTableNS_9allocatorIS1_EEE5firstB8ne180100Ev, symObjAddr: 0x8474, symBinAddr: 0x10000B028, symSize: 0x24 }
  - { offset: 0x2A006, size: 0x8, addend: 0x0, symName: __ZNKSt3__122__compressed_pair_elemIP8VarTableLi0ELb0EE5__getB8ne180100Ev, symObjAddr: 0x8498, symBinAddr: 0x10000B04C, symSize: 0x14 }
  - { offset: 0x2A02C, size: 0x8, addend: 0x0, symName: __ZN6emplex5LexerD2Ev, symObjAddr: 0x84AC, symBinAddr: 0x10000B060, symSize: 0x3C }
  - { offset: 0x2A058, size: 0x8, addend: 0x0, symName: __ZN11SymbolTable9PushScopeEv, symObjAddr: 0x84E8, symBinAddr: 0x10000B09C, symSize: 0x78 }
  - { offset: 0x2A07E, size: 0x8, addend: 0x0, symName: __ZN8Compiler11parseTokensENSt3__110shared_ptrI7ASTNodeEEm, symObjAddr: 0x8560, symBinAddr: 0x10000B114, symSize: 0x2BC }
  - { offset: 0x2A0FC, size: 0x8, addend: 0x0, symName: __ZNSt3__110shared_ptrI7ASTNodeEC1B8ne180100ERKS2_, symObjAddr: 0x881C, symBinAddr: 0x10000B3D0, symSize: 0x34 }
  - { offset: 0x2A135, size: 0x8, addend: 0x0, symName: __ZN11SymbolTable13GetScopeCountEv, symObjAddr: 0x8850, symBinAddr: 0x10000B404, symSize: 0x24 }
  - { offset: 0x2A15B, size: 0x8, addend: 0x0, symName: __ZNSt3__16vectorI8VarTableNS_9allocatorIS1_EEE9push_backB8ne180100EOS1_, symObjAddr: 0x8874, symBinAddr: 0x10000B428, symSize: 0x90 }
  - { offset: 0x2A1A1, size: 0x8, addend: 0x0, symName: __ZN8VarTableC1Ev, symObjAddr: 0x8904, symBinAddr: 0x10000B4B8, symSize: 0x2C }
  - { offset: 0x2A1CD, size: 0x8, addend: 0x0, symName: __ZNSt3__16vectorI8VarTableNS_9allocatorIS1_EEE9__end_capB8ne180100Ev, symObjAddr: 0x8930, symBinAddr: 0x10000B4E4, symSize: 0x28 }
  - { offset: 0x2A1F9, size: 0x8, addend: 0x0, symName: __ZNSt3__16vectorI8VarTableNS_9allocatorIS1_EEE22__construct_one_at_endB8ne180100IJS1_EEEvDpOT_, symObjAddr: 0x8958, symBinAddr: 0x10000B50C, symSize: 0x90 }
  - { offset: 0x2A248, size: 0x8, addend: 0x0, symName: __ZNSt3__16vectorI8VarTableNS_9allocatorIS1_EEE21__push_back_slow_pathIS1_EEPS1_OT_, symObjAddr: 0x89E8, symBinAddr: 0x10000B59C, symSize: 0xE8 }
  - { offset: 0x2A2A6, size: 0x8, addend: 0x0, symName: __ZNSt3__117__compressed_pairIP8VarTableNS_9allocatorIS1_EEE5firstB8ne180100Ev, symObjAddr: 0x8AD0, symBinAddr: 0x10000B684, symSize: 0x24 }
  - { offset: 0x2A2CC, size: 0x8, addend: 0x0, symName: __ZNSt3__122__compressed_pair_elemIP8VarTableLi0ELb0EE5__getB8ne180100Ev, symObjAddr: 0x8AF4, symBinAddr: 0x10000B6A8, symSize: 0x14 }
  - { offset: 0x2A30F, size: 0x8, addend: 0x0, symName: __ZNSt3__16vectorI8VarTableNS_9allocatorIS1_EEE21_ConstructTransactionC1B8ne180100ERS4_m, symObjAddr: 0x8B08, symBinAddr: 0x10000B6BC, symSize: 0x3C }
  - { offset: 0x2A357, size: 0x8, addend: 0x0, symName: __ZNSt3__116allocator_traitsINS_9allocatorI8VarTableEEE9constructB8ne180100IS2_JS2_EvvEEvRS3_PT_DpOT0_, symObjAddr: 0x8B44, symBinAddr: 0x10000B6F8, symSize: 0x30 }
  - { offset: 0x2A3AC, size: 0x8, addend: 0x0, symName: __ZNSt3__16vectorI8VarTableNS_9allocatorIS1_EEE21_ConstructTransactionD1B8ne180100Ev, symObjAddr: 0x8B74, symBinAddr: 0x10000B728, symSize: 0x2C }
  - { offset: 0x2A3D6, size: 0x8, addend: 0x0, symName: __ZNSt3__16vectorI8VarTableNS_9allocatorIS1_EEE21_ConstructTransactionC2B8ne180100ERS4_m, symObjAddr: 0x8BA0, symBinAddr: 0x10000B754, symSize: 0x4C }
  - { offset: 0x2A41E, size: 0x8, addend: 0x0, symName: __ZN8VarTableC1EOS_, symObjAddr: 0x8C4C, symBinAddr: 0x10000B800, symSize: 0x34 }
  - { offset: 0x2A453, size: 0x8, addend: 0x0, symName: __ZN8VarTableC2EOS_, symObjAddr: 0x8C80, symBinAddr: 0x10000B834, symSize: 0x34 }
  - { offset: 0x2A488, size: 0x8, addend: 0x0, symName: __ZNSt3__113unordered_mapINS_12basic_stringIcNS_11char_traitsIcEENS_9allocatorIcEEEENS_10shared_ptrI3VarEENS_4hashIS6_EENS_8equal_toIS6_EENS4_INS_4pairIKS6_S9_EEEEEC1EOSI_, symObjAddr: 0x8CB4, symBinAddr: 0x10000B868, symSize: 0x34 }
  - { offset: 0x2A4C3, size: 0x8, addend: 0x0, symName: __ZNSt3__113unordered_mapINS_12basic_stringIcNS_11char_traitsIcEENS_9allocatorIcEEEENS_10shared_ptrI3VarEENS_4hashIS6_EENS_8equal_toIS6_EENS4_INS_4pairIKS6_S9_EEEEEC2EOSI_, symObjAddr: 0x8CE8, symBinAddr: 0x10000B89C, symSize: 0x34 }
  - { offset: 0x2A4FE, size: 0x8, addend: 0x0, symName: __ZNSt3__112__hash_tableINS_17__hash_value_typeINS_12basic_stringIcNS_11char_traitsIcEENS_9allocatorIcEEEENS_10shared_ptrI3VarEEEENS_22__unordered_map_hasherIS7_SB_NS_4hashIS7_EENS_8equal_toIS7_EELb1EEENS_21__unordered_map_equalIS7_SB_SG_SE_Lb1EEENS5_ISB_EEEC1EOSL_, symObjAddr: 0x8D1C, symBinAddr: 0x10000B8D0, symSize: 0x34 }
  - { offset: 0x2A539, size: 0x8, addend: 0x0, symName: __ZNSt3__112__hash_tableINS_17__hash_value_typeINS_12basic_stringIcNS_11char_traitsIcEENS_9allocatorIcEEEENS_10shared_ptrI3VarEEEENS_22__unordered_map_hasherIS7_SB_NS_4hashIS7_EENS_8equal_toIS7_EELb1EEENS_21__unordered_map_equalIS7_SB_SG_SE_Lb1EEENS5_ISB_EEEC2EOSL_, symObjAddr: 0x8D50, symBinAddr: 0x10000B904, symSize: 0x10C }
  - { offset: 0x2A574, size: 0x8, addend: 0x0, symName: __ZNSt3__110unique_ptrIA_PNS_16__hash_node_baseIPNS_11__hash_nodeINS_17__hash_value_typeINS_12basic_stringIcNS_11char_traitsIcEENS_9allocatorIcEEEENS_10shared_ptrI3VarEEEEPvEEEENS_25__bucket_list_deallocatorINS7_ISI_EEEEEC1B8ne180100EOSN_, symObjAddr: 0x8E5C, symBinAddr: 0x10000BA10, symSize: 0x34 }
  - { offset: 0x2A5AD, size: 0x8, addend: 0x0, symName: __ZNSt3__112__hash_tableINS_17__hash_value_typeINS_12basic_stringIcNS_11char_traitsIcEENS_9allocatorIcEEEENS_10shared_ptrI3VarEEEENS_22__unordered_map_hasherIS7_SB_NS_4hashIS7_EENS_8equal_toIS7_EELb1EEENS_21__unordered_map_equalIS7_SB_SG_SE_Lb1EEENS5_ISB_EEE4sizeB8ne180100Ev, symObjAddr: 0x8E90, symBinAddr: 0x10000BA44, symSize: 0x28 }
  - { offset: 0x2A5D3, size: 0x8, addend: 0x0, symName: __ZNSt3__116__hash_node_baseIPNS_11__hash_nodeINS_17__hash_value_typeINS_12basic_stringIcNS_11char_traitsIcEENS_9allocatorIcEEEENS_10shared_ptrI3VarEEEEPvEEE5__ptrB8ne180100Ev, symObjAddr: 0x8EB8, symBinAddr: 0x10000BA6C, symSize: 0x24 }
  - { offset: 0x2A5F9, size: 0x8, addend: 0x0, symName: __ZNKSt3__110unique_ptrIA_PNS_16__hash_node_baseIPNS_11__hash_nodeINS_17__hash_value_typeINS_12basic_stringIcNS_11char_traitsIcEENS_9allocatorIcEEEENS_10shared_ptrI3VarEEEEPvEEEENS_25__bucket_list_deallocatorINS7_ISI_EEEEEixB8ne180100Em, symObjAddr: 0x8EDC, symBinAddr: 0x10000BA90, symSize: 0x34 }
  - { offset: 0x2A62E, size: 0x8, addend: 0x0, symName: __ZNKSt3__116__hash_node_baseIPNS_11__hash_nodeINS_17__hash_value_typeINS_12basic_stringIcNS_11char_traitsIcEENS_9allocatorIcEEEENS_10shared_ptrI3VarEEEEPvEEE6__hashB8ne180100Ev, symObjAddr: 0x8FA8, symBinAddr: 0x10000BB5C, symSize: 0x18 }
  - { offset: 0x2A654, size: 0x8, addend: 0x0, symName: __ZNKSt3__112__hash_tableINS_17__hash_value_typeINS_12basic_stringIcNS_11char_traitsIcEENS_9allocatorIcEEEENS_10shared_ptrI3VarEEEENS_22__unordered_map_hasherIS7_SB_NS_4hashIS7_EENS_8equal_toIS7_EELb1EEENS_21__unordered_map_equalIS7_SB_SG_SE_Lb1EEENS5_ISB_EEE12bucket_countB8ne180100Ev, symObjAddr: 0x8FC0, symBinAddr: 0x10000BB74, symSize: 0x28 }
  - { offset: 0x2A67A, size: 0x8, addend: 0x0, symName: __ZNSt3__110unique_ptrIA_PNS_16__hash_node_baseIPNS_11__hash_nodeINS_17__hash_value_typeINS_12basic_stringIcNS_11char_traitsIcEENS_9allocatorIcEEEENS_10shared_ptrI3VarEEEEPvEEEENS_25__bucket_list_deallocatorINS7_ISI_EEEEEC2B8ne180100EOSN_, symObjAddr: 0x8FE8, symBinAddr: 0x10000BB9C, symSize: 0x60 }
  - { offset: 0x2A6B3, size: 0x8, addend: 0x0, symName: __ZNSt3__110unique_ptrIA_PNS_16__hash_node_baseIPNS_11__hash_nodeINS_17__hash_value_typeINS_12basic_stringIcNS_11char_traitsIcEENS_9allocatorIcEEEENS_10shared_ptrI3VarEEEEPvEEEENS_25__bucket_list_deallocatorINS7_ISI_EEEEE7releaseB8ne180100Ev, symObjAddr: 0x9048, symBinAddr: 0x10000BBFC, symSize: 0x44 }
  - { offset: 0x2A6E8, size: 0x8, addend: 0x0, symName: __ZNSt3__110unique_ptrIA_PNS_16__hash_node_baseIPNS_11__hash_nodeINS_17__hash_value_typeINS_12basic_stringIcNS_11char_traitsIcEENS_9allocatorIcEEEENS_10shared_ptrI3VarEEEEPvEEEENS_25__bucket_list_deallocatorINS7_ISI_EEEEE11get_deleterB8ne180100Ev, symObjAddr: 0x908C, symBinAddr: 0x10000BC40, symSize: 0x24 }
  - { offset: 0x2A714, size: 0x8, addend: 0x0, symName: __ZNSt3__117__compressed_pairIPPNS_16__hash_node_baseIPNS_11__hash_nodeINS_17__hash_value_typeINS_12basic_stringIcNS_11char_traitsIcEENS_9allocatorIcEEEENS_10shared_ptrI3VarEEEEPvEEEENS_25__bucket_list_deallocatorINS7_ISI_EEEEEC1B8ne180100ISJ_SM_EEOT_OT0_, symObjAddr: 0x90B0, symBinAddr: 0x10000BC64, symSize: 0x3C }
  - { offset: 0x2A76C, size: 0x8, addend: 0x0, symName: __ZNSt3__117__compressed_pairIPPNS_16__hash_node_baseIPNS_11__hash_nodeINS_17__hash_value_typeINS_12basic_stringIcNS_11char_traitsIcEENS_9allocatorIcEEEENS_10shared_ptrI3VarEEEEPvEEEENS_25__bucket_list_deallocatorINS7_ISI_EEEEEC2B8ne180100ISJ_SM_EEOT_OT0_, symObjAddr: 0x90EC, symBinAddr: 0x10000BCA0, symSize: 0x48 }
  - { offset: 0x2A7C4, size: 0x8, addend: 0x0, symName: __ZNSt3__122__compressed_pair_elemIPPNS_16__hash_node_baseIPNS_11__hash_nodeINS_17__hash_value_typeINS_12basic_stringIcNS_11char_traitsIcEENS_9allocatorIcEEEENS_10shared_ptrI3VarEEEEPvEEEELi0ELb0EEC2B8ne180100ISJ_vEEOT_, symObjAddr: 0x9134, symBinAddr: 0x10000BCE8, symSize: 0x24 }
  - { offset: 0x2A806, size: 0x8, addend: 0x0, symName: __ZNSt3__122__compressed_pair_elemINS_25__bucket_list_deallocatorINS_9allocatorIPNS_16__hash_node_baseIPNS_11__hash_nodeINS_17__hash_value_typeINS_12basic_stringIcNS_11char_traitsIcEENS2_IcEEEENS_10shared_ptrI3VarEEEEPvEEEEEEEELi1ELb0EEC2B8ne180100ISL_vEEOT_, symObjAddr: 0x9158, symBinAddr: 0x10000BD0C, symSize: 0x34 }
  - { offset: 0x2A848, size: 0x8, addend: 0x0, symName: __ZNSt3__125__bucket_list_deallocatorINS_9allocatorIPNS_16__hash_node_baseIPNS_11__hash_nodeINS_17__hash_value_typeINS_12basic_stringIcNS_11char_traitsIcEENS1_IcEEEENS_10shared_ptrI3VarEEEEPvEEEEEEEC1B8ne180100EOSK_, symObjAddr: 0x918C, symBinAddr: 0x10000BD40, symSize: 0x34 }
  - { offset: 0x2A881, size: 0x8, addend: 0x0, symName: __ZNSt3__125__bucket_list_deallocatorINS_9allocatorIPNS_16__hash_node_baseIPNS_11__hash_nodeINS_17__hash_value_typeINS_12basic_stringIcNS_11char_traitsIcEENS1_IcEEEENS_10shared_ptrI3VarEEEEPvEEEEEEEC2B8ne180100EOSK_, symObjAddr: 0x91C0, symBinAddr: 0x10000BD74, symSize: 0x48 }
  - { offset: 0x2A8BA, size: 0x8, addend: 0x0, symName: __ZNSt3__117__compressed_pairImNS_22__unordered_map_hasherINS_12basic_stringIcNS_11char_traitsIcEENS_9allocatorIcEEEENS_17__hash_value_typeIS7_NS_10shared_ptrI3VarEEEENS_4hashIS7_EENS_8equal_toIS7_EELb1EEEE5firstB8ne180100Ev, symObjAddr: 0x9208, symBinAddr: 0x10000BDBC, symSize: 0x24 }
  - { offset: 0x2A8E0, size: 0x8, addend: 0x0, symName: __ZNKSt3__117__compressed_pairIPPNS_16__hash_node_baseIPNS_11__hash_nodeINS_17__hash_value_typeINS_12basic_stringIcNS_11char_traitsIcEENS_9allocatorIcEEEENS_10shared_ptrI3VarEEEEPvEEEENS_25__bucket_list_deallocatorINS7_ISI_EEEEE5firstB8ne180100Ev, symObjAddr: 0x922C, symBinAddr: 0x10000BDE0, symSize: 0x24 }
  - { offset: 0x2A906, size: 0x8, addend: 0x0, symName: __ZNKSt3__122__compressed_pair_elemIPPNS_16__hash_node_baseIPNS_11__hash_nodeINS_17__hash_value_typeINS_12basic_stringIcNS_11char_traitsIcEENS_9allocatorIcEEEENS_10shared_ptrI3VarEEEEPvEEEELi0ELb0EE5__getB8ne180100Ev, symObjAddr: 0x9250, symBinAddr: 0x10000BE04, symSize: 0x14 }
  - { offset: 0x2A92C, size: 0x8, addend: 0x0, symName: __ZNKSt3__110unique_ptrIA_PNS_16__hash_node_baseIPNS_11__hash_nodeINS_17__hash_value_typeINS_12basic_stringIcNS_11char_traitsIcEENS_9allocatorIcEEEENS_10shared_ptrI3VarEEEEPvEEEENS_25__bucket_list_deallocatorINS7_ISI_EEEEE11get_deleterB8ne180100Ev, symObjAddr: 0x9264, symBinAddr: 0x10000BE18, symSize: 0x24 }
  - { offset: 0x2A952, size: 0x8, addend: 0x0, symName: __ZNKSt3__125__bucket_list_deallocatorINS_9allocatorIPNS_16__hash_node_baseIPNS_11__hash_nodeINS_17__hash_value_typeINS_12basic_stringIcNS_11char_traitsIcEENS1_IcEEEENS_10shared_ptrI3VarEEEEPvEEEEEEE4sizeB8ne180100Ev, symObjAddr: 0x9288, symBinAddr: 0x10000BE3C, symSize: 0x28 }
  - { offset: 0x2A978, size: 0x8, addend: 0x0, symName: __ZNKSt3__117__compressed_pairIPPNS_16__hash_node_baseIPNS_11__hash_nodeINS_17__hash_value_typeINS_12basic_stringIcNS_11char_traitsIcEENS_9allocatorIcEEEENS_10shared_ptrI3VarEEEEPvEEEENS_25__bucket_list_deallocatorINS7_ISI_EEEEE6secondB8ne180100Ev, symObjAddr: 0x92B0, symBinAddr: 0x10000BE64, symSize: 0x28 }
  - { offset: 0x2A99E, size: 0x8, addend: 0x0, symName: __ZNKSt3__122__compressed_pair_elemINS_25__bucket_list_deallocatorINS_9allocatorIPNS_16__hash_node_baseIPNS_11__hash_nodeINS_17__hash_value_typeINS_12basic_stringIcNS_11char_traitsIcEENS2_IcEEEENS_10shared_ptrI3VarEEEEPvEEEEEEEELi1ELb0EE5__getB8ne180100Ev, symObjAddr: 0x92D8, symBinAddr: 0x10000BE8C, symSize: 0x14 }
  - { offset: 0x2A9C4, size: 0x8, addend: 0x0, symName: __ZNKSt3__117__compressed_pairImNS_9allocatorIPNS_16__hash_node_baseIPNS_11__hash_nodeINS_17__hash_value_typeINS_12basic_stringIcNS_11char_traitsIcEENS1_IcEEEENS_10shared_ptrI3VarEEEEPvEEEEEEE5firstB8ne180100Ev, symObjAddr: 0x92EC, symBinAddr: 0x10000BEA0, symSize: 0x24 }
  - { offset: 0x2A9EA, size: 0x8, addend: 0x0, symName: __ZNKSt3__122__compressed_pair_elemImLi0ELb0EE5__getB8ne180100Ev, symObjAddr: 0x9310, symBinAddr: 0x10000BEC4, symSize: 0x14 }
  - { offset: 0x2AA10, size: 0x8, addend: 0x0, symName: __ZNSt3__16vectorI8VarTableNS_9allocatorIS1_EEE21_ConstructTransactionD2B8ne180100Ev, symObjAddr: 0x9324, symBinAddr: 0x10000BED8, symSize: 0x20 }
  - { offset: 0x2AA3A, size: 0x8, addend: 0x0, symName: __ZNKSt3__16vectorI8VarTableNS_9allocatorIS1_EEE11__recommendB8ne180100Em, symObjAddr: 0x9344, symBinAddr: 0x10000BEF8, symSize: 0xB4 }
  - { offset: 0x2AA8F, size: 0x8, addend: 0x0, symName: __ZNKSt3__16vectorI8VarTableNS_9allocatorIS1_EEE4sizeB8ne180100Ev, symObjAddr: 0x93F8, symBinAddr: 0x10000BFAC, symSize: 0x28 }
  - { offset: 0x2AAB5, size: 0x8, addend: 0x0, symName: __ZNSt3__114__split_bufferI8VarTableRNS_9allocatorIS1_EEEC1EmmS4_, symObjAddr: 0x9420, symBinAddr: 0x10000BFD4, symSize: 0x44 }
  - { offset: 0x2AB0B, size: 0x8, addend: 0x0, symName: __ZNSt3__114__split_bufferI8VarTableRNS_9allocatorIS1_EEED1Ev, symObjAddr: 0x9574, symBinAddr: 0x10000C128, symSize: 0x2C }
  - { offset: 0x2AB37, size: 0x8, addend: 0x0, symName: __ZNKSt3__16vectorI8VarTableNS_9allocatorIS1_EEE8max_sizeEv, symObjAddr: 0x95A0, symBinAddr: 0x10000C154, symSize: 0x60 }
  - { offset: 0x2AB5F, size: 0x8, addend: 0x0, symName: __ZNKSt3__16vectorI8VarTableNS_9allocatorIS1_EEE20__throw_length_errorB8ne180100Ev, symObjAddr: 0x9600, symBinAddr: 0x10000C1B4, symSize: 0x1C }
  - { offset: 0x2AB91, size: 0x8, addend: 0x0, symName: __ZNSt3__116allocator_traitsINS_9allocatorI8VarTableEEE8max_sizeB8ne180100IS3_vvEEmRKS3_, symObjAddr: 0x961C, symBinAddr: 0x10000C1D0, symSize: 0x28 }
  - { offset: 0x2ABBD, size: 0x8, addend: 0x0, symName: __ZNKSt3__16vectorI8VarTableNS_9allocatorIS1_EEE7__allocB8ne180100Ev, symObjAddr: 0x9644, symBinAddr: 0x10000C1F8, symSize: 0x28 }
  - { offset: 0x2ABE3, size: 0x8, addend: 0x0, symName: __ZNKSt3__117__compressed_pairIP8VarTableNS_9allocatorIS1_EEE6secondB8ne180100Ev, symObjAddr: 0x966C, symBinAddr: 0x10000C220, symSize: 0x24 }
  - { offset: 0x2AC09, size: 0x8, addend: 0x0, symName: __ZNKSt3__122__compressed_pair_elemINS_9allocatorI8VarTableEELi1ELb1EE5__getB8ne180100Ev, symObjAddr: 0x9690, symBinAddr: 0x10000C244, symSize: 0x14 }
  - { offset: 0x2AC2F, size: 0x8, addend: 0x0, symName: __ZNSt3__114__split_bufferI8VarTableRNS_9allocatorIS1_EEEC2EmmS4_, symObjAddr: 0x96A4, symBinAddr: 0x10000C258, symSize: 0xE0 }
  - { offset: 0x2ACA2, size: 0x8, addend: 0x0, symName: __ZNSt3__117__compressed_pairIP8VarTableRNS_9allocatorIS1_EEEC1B8ne180100IDnS5_EEOT_OT0_, symObjAddr: 0x9784, symBinAddr: 0x10000C338, symSize: 0x3C }
  - { offset: 0x2ACFA, size: 0x8, addend: 0x0, symName: __ZNSt3__114__split_bufferI8VarTableRNS_9allocatorIS1_EEE7__allocB8ne180100Ev, symObjAddr: 0x9800, symBinAddr: 0x10000C3B4, symSize: 0x28 }
  - { offset: 0x2AD20, size: 0x8, addend: 0x0, symName: __ZNSt3__114__split_bufferI8VarTableRNS_9allocatorIS1_EEE9__end_capB8ne180100Ev, symObjAddr: 0x9828, symBinAddr: 0x10000C3DC, symSize: 0x28 }
  - { offset: 0x2AD46, size: 0x8, addend: 0x0, symName: __ZNSt3__117__compressed_pairIP8VarTableRNS_9allocatorIS1_EEEC2B8ne180100IDnS5_EEOT_OT0_, symObjAddr: 0x9850, symBinAddr: 0x10000C404, symSize: 0x48 }
  - { offset: 0x2AD9E, size: 0x8, addend: 0x0, symName: __ZNSt3__122__compressed_pair_elemIRNS_9allocatorI8VarTableEELi1ELb0EEC2B8ne180100IS4_vEEOT_, symObjAddr: 0x9898, symBinAddr: 0x10000C44C, symSize: 0x20 }
  - { offset: 0x2ADE0, size: 0x8, addend: 0x0, symName: __ZNSt3__19allocatorI8VarTableE8allocateB8ne180100Em, symObjAddr: 0x98B8, symBinAddr: 0x10000C46C, symSize: 0x5C }
  - { offset: 0x2AE14, size: 0x8, addend: 0x0, symName: __ZNSt3__117__compressed_pairIP8VarTableRNS_9allocatorIS1_EEE6secondB8ne180100Ev, symObjAddr: 0x9914, symBinAddr: 0x10000C4C8, symSize: 0x28 }
  - { offset: 0x2AE3A, size: 0x8, addend: 0x0, symName: __ZNSt3__122__compressed_pair_elemIRNS_9allocatorI8VarTableEELi1ELb0EE5__getB8ne180100Ev, symObjAddr: 0x993C, symBinAddr: 0x10000C4F0, symSize: 0x18 }
  - { offset: 0x2AE60, size: 0x8, addend: 0x0, symName: __ZNSt3__117__compressed_pairIP8VarTableRNS_9allocatorIS1_EEE5firstB8ne180100Ev, symObjAddr: 0x9954, symBinAddr: 0x10000C508, symSize: 0x24 }
  - { offset: 0x2AE86, size: 0x8, addend: 0x0, symName: __ZNSt3__116reverse_iteratorIP8VarTableEC1B8ne180100ES2_, symObjAddr: 0x9AA4, symBinAddr: 0x10000C658, symSize: 0x34 }
  - { offset: 0x2AEBE, size: 0x8, addend: 0x0, symName: __ZNKSt3__116reverse_iteratorIP8VarTableE4baseB8ne180100Ev, symObjAddr: 0x9AD8, symBinAddr: 0x10000C68C, symSize: 0x18 }
  - { offset: 0x2AEE4, size: 0x8, addend: 0x0, symName: __ZNKSt3__16vectorI8VarTableNS_9allocatorIS1_EEE14__annotate_newB8ne180100Em, symObjAddr: 0x9B2C, symBinAddr: 0x10000C6E0, symSize: 0x14 }
  - { offset: 0x2AF19, size: 0x8, addend: 0x0, symName: __ZNSt3__129_AllocatorDestroyRangeReverseINS_9allocatorI8VarTableEENS_16reverse_iteratorIPS2_EEEC1B8ne180100ERS3_RS6_S9_, symObjAddr: 0x9B8C, symBinAddr: 0x10000C740, symSize: 0x44 }
  - { offset: 0x2AF70, size: 0x8, addend: 0x0, symName: __ZNKSt3__116reverse_iteratorIP8VarTableEdeB8ne180100Ev, symObjAddr: 0x9C3C, symBinAddr: 0x10000C7F0, symSize: 0x28 }
  - { offset: 0x2AFA4, size: 0x8, addend: 0x0, symName: __ZNSt3__116reverse_iteratorIP8VarTableEppB8ne180100Ev, symObjAddr: 0x9C64, symBinAddr: 0x10000C818, symSize: 0x20 }
  - { offset: 0x2AFCA, size: 0x8, addend: 0x0, symName: __ZNSt3__128__exception_guard_exceptionsINS_29_AllocatorDestroyRangeReverseINS_9allocatorI8VarTableEENS_16reverse_iteratorIPS3_EEEEE10__completeB8ne180100Ev, symObjAddr: 0x9C84, symBinAddr: 0x10000C838, symSize: 0x1C }
  - { offset: 0x2AFF0, size: 0x8, addend: 0x0, symName: __ZNSt3__128__exception_guard_exceptionsINS_29_AllocatorDestroyRangeReverseINS_9allocatorI8VarTableEENS_16reverse_iteratorIPS3_EEEEED1B8ne180100Ev, symObjAddr: 0x9CA0, symBinAddr: 0x10000C854, symSize: 0x2C }
  - { offset: 0x2B01A, size: 0x8, addend: 0x0, symName: __ZNSt3__128__exception_guard_exceptionsINS_29_AllocatorDestroyRangeReverseINS_9allocatorI8VarTableEENS_16reverse_iteratorIPS3_EEEEEC1B8ne180100ES8_, symObjAddr: 0x9CCC, symBinAddr: 0x10000C880, symSize: 0x34 }
  - { offset: 0x2B053, size: 0x8, addend: 0x0, symName: __ZNSt3__128__exception_guard_exceptionsINS_29_AllocatorDestroyRangeReverseINS_9allocatorI8VarTableEENS_16reverse_iteratorIPS3_EEEEEC2B8ne180100ES8_, symObjAddr: 0x9D00, symBinAddr: 0x10000C8B4, symSize: 0x30 }
  - { offset: 0x2B08C, size: 0x8, addend: 0x0, symName: __ZNSt3__129_AllocatorDestroyRangeReverseINS_9allocatorI8VarTableEENS_16reverse_iteratorIPS2_EEEC2B8ne180100ERS3_RS6_S9_, symObjAddr: 0x9D30, symBinAddr: 0x10000C8E4, symSize: 0x38 }
  - { offset: 0x2B0E9, size: 0x8, addend: 0x0, symName: __ZNSt3__119__to_address_helperINS_16reverse_iteratorIP8VarTableEEvE6__callB8ne180100ERKS4_, symObjAddr: 0x9D68, symBinAddr: 0x10000C91C, symSize: 0x38 }
  - { offset: 0x2B10C, size: 0x8, addend: 0x0, symName: __ZNKSt3__116reverse_iteratorIP8VarTableEptB8ne180100Ev, symObjAddr: 0x9DA0, symBinAddr: 0x10000C954, symSize: 0x2C }
  - { offset: 0x2B132, size: 0x8, addend: 0x0, symName: __ZNSt3__128__exception_guard_exceptionsINS_29_AllocatorDestroyRangeReverseINS_9allocatorI8VarTableEENS_16reverse_iteratorIPS3_EEEEED2B8ne180100Ev, symObjAddr: 0x9E70, symBinAddr: 0x10000CA24, symSize: 0x50 }
  - { offset: 0x2B15C, size: 0x8, addend: 0x0, symName: __ZNKSt3__129_AllocatorDestroyRangeReverseINS_9allocatorI8VarTableEENS_16reverse_iteratorIPS2_EEEclB8ne180100Ev, symObjAddr: 0x9EC0, symBinAddr: 0x10000CA74, symSize: 0xB4 }
  - { offset: 0x2B183, size: 0x8, addend: 0x0, symName: __ZNSt3__116reverse_iteratorINS0_IP8VarTableEEEC1B8ne180100ES3_, symObjAddr: 0x9FE4, symBinAddr: 0x10000CB98, symSize: 0x3C }
  - { offset: 0x2B1BB, size: 0x8, addend: 0x0, symName: __ZNSt3__116reverse_iteratorINS0_IP8VarTableEEEppB8ne180100Ev, symObjAddr: 0xA0A4, symBinAddr: 0x10000CC58, symSize: 0x30 }
  - { offset: 0x2B1E1, size: 0x8, addend: 0x0, symName: __ZNKSt3__116reverse_iteratorINS0_IP8VarTableEEE4baseB8ne180100Ev, symObjAddr: 0xA0D4, symBinAddr: 0x10000CC88, symSize: 0x24 }
  - { offset: 0x2B20D, size: 0x8, addend: 0x0, symName: __ZNSt3__119__to_address_helperINS_16reverse_iteratorINS1_IP8VarTableEEEEvE6__callB8ne180100ERKS5_, symObjAddr: 0xA0F8, symBinAddr: 0x10000CCAC, symSize: 0x38 }
  - { offset: 0x2B230, size: 0x8, addend: 0x0, symName: __ZNKSt3__116reverse_iteratorINS0_IP8VarTableEEEptB8ne180100Ev, symObjAddr: 0xA130, symBinAddr: 0x10000CCE4, symSize: 0x4C }
  - { offset: 0x2B256, size: 0x8, addend: 0x0, symName: __ZNSt3__116reverse_iteratorIP8VarTableEpLB8ne180100El, symObjAddr: 0xA22C, symBinAddr: 0x10000CDE0, symSize: 0x30 }
  - { offset: 0x2B28A, size: 0x8, addend: 0x0, symName: __ZNSt3__116reverse_iteratorIP8VarTableEmmB8ne180100Ev, symObjAddr: 0xA25C, symBinAddr: 0x10000CE10, symSize: 0x20 }
  - { offset: 0x2B2B0, size: 0x8, addend: 0x0, symName: __ZNSt3__116reverse_iteratorINS0_IP8VarTableEEEC2B8ne180100ES3_, symObjAddr: 0xA27C, symBinAddr: 0x10000CE30, symSize: 0x2C }
  - { offset: 0x2B2E8, size: 0x8, addend: 0x0, symName: __ZNSt3__116reverse_iteratorIP8VarTableEC2B8ne180100ES2_, symObjAddr: 0xA2A8, symBinAddr: 0x10000CE5C, symSize: 0x28 }
  - { offset: 0x2B320, size: 0x8, addend: 0x0, symName: __ZNSt3__114__split_bufferI8VarTableRNS_9allocatorIS1_EEED2Ev, symObjAddr: 0xA2D0, symBinAddr: 0x10000CE84, symSize: 0x8C }
  - { offset: 0x2B34C, size: 0x8, addend: 0x0, symName: __ZNSt3__114__split_bufferI8VarTableRNS_9allocatorIS1_EEE5clearB8ne180100Ev, symObjAddr: 0xA35C, symBinAddr: 0x10000CF10, symSize: 0x28 }
  - { offset: 0x2B372, size: 0x8, addend: 0x0, symName: __ZNKSt3__114__split_bufferI8VarTableRNS_9allocatorIS1_EEE8capacityB8ne180100Ev, symObjAddr: 0xA384, symBinAddr: 0x10000CF38, symSize: 0x40 }
  - { offset: 0x2B398, size: 0x8, addend: 0x0, symName: __ZNSt3__114__split_bufferI8VarTableRNS_9allocatorIS1_EEE17__destruct_at_endB8ne180100EPS1_, symObjAddr: 0xA3C4, symBinAddr: 0x10000CF78, symSize: 0x2C }
  - { offset: 0x2B3CC, size: 0x8, addend: 0x0, symName: __ZNSt3__114__split_bufferI8VarTableRNS_9allocatorIS1_EEE17__destruct_at_endB8ne180100EPS1_NS_17integral_constantIbLb0EEE, symObjAddr: 0xA3F0, symBinAddr: 0x10000CFA4, symSize: 0x80 }
  - { offset: 0x2B40C, size: 0x8, addend: 0x0, symName: __ZNKSt3__114__split_bufferI8VarTableRNS_9allocatorIS1_EEE9__end_capB8ne180100Ev, symObjAddr: 0xA470, symBinAddr: 0x10000D024, symSize: 0x28 }
  - { offset: 0x2B432, size: 0x8, addend: 0x0, symName: __ZNKSt3__117__compressed_pairIP8VarTableRNS_9allocatorIS1_EEE5firstB8ne180100Ev, symObjAddr: 0xA498, symBinAddr: 0x10000D04C, symSize: 0x24 }
  - { offset: 0x2B458, size: 0x8, addend: 0x0, symName: __ZN8VarTableC2Ev, symObjAddr: 0xA4BC, symBinAddr: 0x10000D070, symSize: 0x2C }
  - { offset: 0x2B484, size: 0x8, addend: 0x0, symName: __ZNSt3__113unordered_mapINS_12basic_stringIcNS_11char_traitsIcEENS_9allocatorIcEEEENS_10shared_ptrI3VarEENS_4hashIS6_EENS_8equal_toIS6_EENS4_INS_4pairIKS6_S9_EEEEEC1B8ne180100Ev, symObjAddr: 0xA4E8, symBinAddr: 0x10000D09C, symSize: 0x2C }
  - { offset: 0x2B4AE, size: 0x8, addend: 0x0, symName: __ZNSt3__113unordered_mapINS_12basic_stringIcNS_11char_traitsIcEENS_9allocatorIcEEEENS_10shared_ptrI3VarEENS_4hashIS6_EENS_8equal_toIS6_EENS4_INS_4pairIKS6_S9_EEEEEC2B8ne180100Ev, symObjAddr: 0xA514, symBinAddr: 0x10000D0C8, symSize: 0x2C }
  - { offset: 0x2B4D8, size: 0x8, addend: 0x0, symName: __ZNSt3__112__hash_tableINS_17__hash_value_typeINS_12basic_stringIcNS_11char_traitsIcEENS_9allocatorIcEEEENS_10shared_ptrI3VarEEEENS_22__unordered_map_hasherIS7_SB_NS_4hashIS7_EENS_8equal_toIS7_EELb1EEENS_21__unordered_map_equalIS7_SB_SG_SE_Lb1EEENS5_ISB_EEEC1Ev, symObjAddr: 0xA540, symBinAddr: 0x10000D0F4, symSize: 0x2C }
  - { offset: 0x2B504, size: 0x8, addend: 0x0, symName: __ZNSt3__112__hash_tableINS_17__hash_value_typeINS_12basic_stringIcNS_11char_traitsIcEENS_9allocatorIcEEEENS_10shared_ptrI3VarEEEENS_22__unordered_map_hasherIS7_SB_NS_4hashIS7_EENS_8equal_toIS7_EELb1EEENS_21__unordered_map_equalIS7_SB_SG_SE_Lb1EEENS5_ISB_EEEC2Ev, symObjAddr: 0xA56C, symBinAddr: 0x10000D120, symSize: 0x7C }
  - { offset: 0x2B530, size: 0x8, addend: 0x0, symName: __ZNSt3__110unique_ptrIA_PNS_16__hash_node_baseIPNS_11__hash_nodeINS_17__hash_value_typeINS_12basic_stringIcNS_11char_traitsIcEENS_9allocatorIcEEEENS_10shared_ptrI3VarEEEEPvEEEENS_25__bucket_list_deallocatorINS7_ISI_EEEEEC1B8ne180100ILb1EvEEv, symObjAddr: 0xA5E8, symBinAddr: 0x10000D19C, symSize: 0x2C }
  - { offset: 0x2B565, size: 0x8, addend: 0x0, symName: __ZNSt3__117__compressed_pairINS_16__hash_node_baseIPNS_11__hash_nodeINS_17__hash_value_typeINS_12basic_stringIcNS_11char_traitsIcEENS_9allocatorIcEEEENS_10shared_ptrI3VarEEEEPvEEEENS7_ISF_EEEC1B8ne180100ILb1EvEEv, symObjAddr: 0xA614, symBinAddr: 0x10000D1C8, symSize: 0x2C }
  - { offset: 0x2B5A0, size: 0x8, addend: 0x0, symName: __ZNSt3__117__compressed_pairImNS_22__unordered_map_hasherINS_12basic_stringIcNS_11char_traitsIcEENS_9allocatorIcEEEENS_17__hash_value_typeIS7_NS_10shared_ptrI3VarEEEENS_4hashIS7_EENS_8equal_toIS7_EELb1EEEEC1B8ne180100IiNS_18__default_init_tagEEEOT_OT0_, symObjAddr: 0xA640, symBinAddr: 0x10000D1F4, symSize: 0x3C }
  - { offset: 0x2B5FE, size: 0x8, addend: 0x0, symName: __ZNSt3__117__compressed_pairIfNS_21__unordered_map_equalINS_12basic_stringIcNS_11char_traitsIcEENS_9allocatorIcEEEENS_17__hash_value_typeIS7_NS_10shared_ptrI3VarEEEENS_8equal_toIS7_EENS_4hashIS7_EELb1EEEEC1B8ne180100IfNS_18__default_init_tagEEEOT_OT0_, symObjAddr: 0xA67C, symBinAddr: 0x10000D230, symSize: 0x3C }
  - { offset: 0x2B656, size: 0x8, addend: 0x0, symName: __ZNSt3__110unique_ptrIA_PNS_16__hash_node_baseIPNS_11__hash_nodeINS_17__hash_value_typeINS_12basic_stringIcNS_11char_traitsIcEENS_9allocatorIcEEEENS_10shared_ptrI3VarEEEEPvEEEENS_25__bucket_list_deallocatorINS7_ISI_EEEEEC2B8ne180100ILb1EvEEv, symObjAddr: 0xA6B8, symBinAddr: 0x10000D26C, symSize: 0x3C }
  - { offset: 0x2B68B, size: 0x8, addend: 0x0, symName: __ZNSt3__117__compressed_pairIPPNS_16__hash_node_baseIPNS_11__hash_nodeINS_17__hash_value_typeINS_12basic_stringIcNS_11char_traitsIcEENS_9allocatorIcEEEENS_10shared_ptrI3VarEEEEPvEEEENS_25__bucket_list_deallocatorINS7_ISI_EEEEEC1B8ne180100INS_16__value_init_tagESP_EEOT_OT0_, symObjAddr: 0xA6F4, symBinAddr: 0x10000D2A8, symSize: 0x3C }
  - { offset: 0x2B6E3, size: 0x8, addend: 0x0, symName: __ZNSt3__117__compressed_pairIPPNS_16__hash_node_baseIPNS_11__hash_nodeINS_17__hash_value_typeINS_12basic_stringIcNS_11char_traitsIcEENS_9allocatorIcEEEENS_10shared_ptrI3VarEEEEPvEEEENS_25__bucket_list_deallocatorINS7_ISI_EEEEEC2B8ne180100INS_16__value_init_tagESP_EEOT_OT0_, symObjAddr: 0xA730, symBinAddr: 0x10000D2E4, symSize: 0x40 }
  - { offset: 0x2B73B, size: 0x8, addend: 0x0, symName: __ZNSt3__122__compressed_pair_elemIPPNS_16__hash_node_baseIPNS_11__hash_nodeINS_17__hash_value_typeINS_12basic_stringIcNS_11char_traitsIcEENS_9allocatorIcEEEENS_10shared_ptrI3VarEEEEPvEEEELi0ELb0EEC2B8ne180100ENS_16__value_init_tagE, symObjAddr: 0xA770, symBinAddr: 0x10000D324, symSize: 0x18 }
  - { offset: 0x2B76F, size: 0x8, addend: 0x0, symName: __ZNSt3__122__compressed_pair_elemINS_25__bucket_list_deallocatorINS_9allocatorIPNS_16__hash_node_baseIPNS_11__hash_nodeINS_17__hash_value_typeINS_12basic_stringIcNS_11char_traitsIcEENS2_IcEEEENS_10shared_ptrI3VarEEEEPvEEEEEEEELi1ELb0EEC2B8ne180100ENS_16__value_init_tagE, symObjAddr: 0xA788, symBinAddr: 0x10000D33C, symSize: 0x2C }
  - { offset: 0x2B7A3, size: 0x8, addend: 0x0, symName: __ZNSt3__125__bucket_list_deallocatorINS_9allocatorIPNS_16__hash_node_baseIPNS_11__hash_nodeINS_17__hash_value_typeINS_12basic_stringIcNS_11char_traitsIcEENS1_IcEEEENS_10shared_ptrI3VarEEEEPvEEEEEEEC1B8ne180100Ev, symObjAddr: 0xA7B4, symBinAddr: 0x10000D368, symSize: 0x2C }
  - { offset: 0x2B7CD, size: 0x8, addend: 0x0, symName: __ZNSt3__125__bucket_list_deallocatorINS_9allocatorIPNS_16__hash_node_baseIPNS_11__hash_nodeINS_17__hash_value_typeINS_12basic_stringIcNS_11char_traitsIcEENS1_IcEEEENS_10shared_ptrI3VarEEEEPvEEEEEEEC2B8ne180100Ev, symObjAddr: 0xA7E0, symBinAddr: 0x10000D394, symSize: 0x40 }
  - { offset: 0x2B7F7, size: 0x8, addend: 0x0, symName: __ZNSt3__117__compressed_pairImNS_9allocatorIPNS_16__hash_node_baseIPNS_11__hash_nodeINS_17__hash_value_typeINS_12basic_stringIcNS_11char_traitsIcEENS1_IcEEEENS_10shared_ptrI3VarEEEEPvEEEEEEEC1B8ne180100IiNS_18__default_init_tagEEEOT_OT0_, symObjAddr: 0xA820, symBinAddr: 0x10000D3D4, symSize: 0x3C }
  - { offset: 0x2B84F, size: 0x8, addend: 0x0, symName: __ZNSt3__117__compressed_pairImNS_9allocatorIPNS_16__hash_node_baseIPNS_11__hash_nodeINS_17__hash_value_typeINS_12basic_stringIcNS_11char_traitsIcEENS1_IcEEEENS_10shared_ptrI3VarEEEEPvEEEEEEEC2B8ne180100IiNS_18__default_init_tagEEEOT_OT0_, symObjAddr: 0xA85C, symBinAddr: 0x10000D410, symSize: 0x40 }
  - { offset: 0x2B8A7, size: 0x8, addend: 0x0, symName: __ZNSt3__122__compressed_pair_elemImLi0ELb0EEC2B8ne180100IivEEOT_, symObjAddr: 0xA89C, symBinAddr: 0x10000D450, symSize: 0x24 }
  - { offset: 0x2B8E9, size: 0x8, addend: 0x0, symName: __ZNSt3__122__compressed_pair_elemINS_9allocatorIPNS_16__hash_node_baseIPNS_11__hash_nodeINS_17__hash_value_typeINS_12basic_stringIcNS_11char_traitsIcEENS1_IcEEEENS_10shared_ptrI3VarEEEEPvEEEEEELi1ELb1EEC2B8ne180100ENS_18__default_init_tagE, symObjAddr: 0xA8C0, symBinAddr: 0x10000D474, symSize: 0x2C }
  - { offset: 0x2B91D, size: 0x8, addend: 0x0, symName: __ZNSt3__19allocatorIPNS_16__hash_node_baseIPNS_11__hash_nodeINS_17__hash_value_typeINS_12basic_stringIcNS_11char_traitsIcEENS0_IcEEEENS_10shared_ptrI3VarEEEEPvEEEEEC2B8ne180100Ev, symObjAddr: 0xA8EC, symBinAddr: 0x10000D4A0, symSize: 0x2C }
  - { offset: 0x2B947, size: 0x8, addend: 0x0, symName: __ZNSt3__116__non_trivial_ifILb1ENS_9allocatorIPNS_16__hash_node_baseIPNS_11__hash_nodeINS_17__hash_value_typeINS_12basic_stringIcNS_11char_traitsIcEENS1_IcEEEENS_10shared_ptrI3VarEEEEPvEEEEEEEC2B8ne180100Ev, symObjAddr: 0xA918, symBinAddr: 0x10000D4CC, symSize: 0x14 }
  - { offset: 0x2B971, size: 0x8, addend: 0x0, symName: __ZNSt3__117__compressed_pairINS_16__hash_node_baseIPNS_11__hash_nodeINS_17__hash_value_typeINS_12basic_stringIcNS_11char_traitsIcEENS_9allocatorIcEEEENS_10shared_ptrI3VarEEEEPvEEEENS7_ISF_EEEC2B8ne180100ILb1EvEEv, symObjAddr: 0xA92C, symBinAddr: 0x10000D4E0, symSize: 0x34 }
  - { offset: 0x2B9A6, size: 0x8, addend: 0x0, symName: __ZNSt3__122__compressed_pair_elemINS_16__hash_node_baseIPNS_11__hash_nodeINS_17__hash_value_typeINS_12basic_stringIcNS_11char_traitsIcEENS_9allocatorIcEEEENS_10shared_ptrI3VarEEEEPvEEEELi0ELb0EEC2B8ne180100ENS_16__value_init_tagE, symObjAddr: 0xA960, symBinAddr: 0x10000D514, symSize: 0x2C }
  - { offset: 0x2B9DA, size: 0x8, addend: 0x0, symName: __ZNSt3__122__compressed_pair_elemINS_9allocatorINS_11__hash_nodeINS_17__hash_value_typeINS_12basic_stringIcNS_11char_traitsIcEENS1_IcEEEENS_10shared_ptrI3VarEEEEPvEEEELi1ELb1EEC2B8ne180100ENS_16__value_init_tagE, symObjAddr: 0xA98C, symBinAddr: 0x10000D540, symSize: 0x2C }
  - { offset: 0x2BA0E, size: 0x8, addend: 0x0, symName: __ZNSt3__116__hash_node_baseIPNS_11__hash_nodeINS_17__hash_value_typeINS_12basic_stringIcNS_11char_traitsIcEENS_9allocatorIcEEEENS_10shared_ptrI3VarEEEEPvEEEC1B8ne180100Ev, symObjAddr: 0xA9B8, symBinAddr: 0x10000D56C, symSize: 0x2C }
  - { offset: 0x2BA38, size: 0x8, addend: 0x0, symName: __ZNSt3__116__hash_node_baseIPNS_11__hash_nodeINS_17__hash_value_typeINS_12basic_stringIcNS_11char_traitsIcEENS_9allocatorIcEEEENS_10shared_ptrI3VarEEEEPvEEEC2B8ne180100Ev, symObjAddr: 0xA9E4, symBinAddr: 0x10000D598, symSize: 0x18 }
  - { offset: 0x2BA62, size: 0x8, addend: 0x0, symName: __ZNSt3__19allocatorINS_11__hash_nodeINS_17__hash_value_typeINS_12basic_stringIcNS_11char_traitsIcEENS0_IcEEEENS_10shared_ptrI3VarEEEEPvEEEC2B8ne180100Ev, symObjAddr: 0xA9FC, symBinAddr: 0x10000D5B0, symSize: 0x2C }
  - { offset: 0x2BA8C, size: 0x8, addend: 0x0, symName: __ZNSt3__116__non_trivial_ifILb1ENS_9allocatorINS_11__hash_nodeINS_17__hash_value_typeINS_12basic_stringIcNS_11char_traitsIcEENS1_IcEEEENS_10shared_ptrI3VarEEEEPvEEEEEC2B8ne180100Ev, symObjAddr: 0xAA28, symBinAddr: 0x10000D5DC, symSize: 0x14 }
  - { offset: 0x2BAB6, size: 0x8, addend: 0x0, symName: __ZNSt3__117__compressed_pairImNS_22__unordered_map_hasherINS_12basic_stringIcNS_11char_traitsIcEENS_9allocatorIcEEEENS_17__hash_value_typeIS7_NS_10shared_ptrI3VarEEEENS_4hashIS7_EENS_8equal_toIS7_EELb1EEEEC2B8ne180100IiNS_18__default_init_tagEEEOT_OT0_, symObjAddr: 0xAA3C, symBinAddr: 0x10000D5F0, symSize: 0x40 }
  - { offset: 0x2BB0E, size: 0x8, addend: 0x0, symName: __ZNSt3__122__compressed_pair_elemINS_22__unordered_map_hasherINS_12basic_stringIcNS_11char_traitsIcEENS_9allocatorIcEEEENS_17__hash_value_typeIS7_NS_10shared_ptrI3VarEEEENS_4hashIS7_EENS_8equal_toIS7_EELb1EEELi1ELb1EEC2B8ne180100ENS_18__default_init_tagE, symObjAddr: 0xAA7C, symBinAddr: 0x10000D630, symSize: 0x2C }
  - { offset: 0x2BB42, size: 0x8, addend: 0x0, symName: __ZNSt3__122__unordered_map_hasherINS_12basic_stringIcNS_11char_traitsIcEENS_9allocatorIcEEEENS_17__hash_value_typeIS6_NS_10shared_ptrI3VarEEEENS_4hashIS6_EENS_8equal_toIS6_EELb1EEC2B8ne180100Ev, symObjAddr: 0xAAA8, symBinAddr: 0x10000D65C, symSize: 0x14 }
  - { offset: 0x2BB6C, size: 0x8, addend: 0x0, symName: __ZNSt3__117__compressed_pairIfNS_21__unordered_map_equalINS_12basic_stringIcNS_11char_traitsIcEENS_9allocatorIcEEEENS_17__hash_value_typeIS7_NS_10shared_ptrI3VarEEEENS_8equal_toIS7_EENS_4hashIS7_EELb1EEEEC2B8ne180100IfNS_18__default_init_tagEEEOT_OT0_, symObjAddr: 0xAABC, symBinAddr: 0x10000D670, symSize: 0x40 }
  - { offset: 0x2BBC4, size: 0x8, addend: 0x0, symName: __ZNSt3__122__compressed_pair_elemIfLi0ELb0EEC2B8ne180100IfvEEOT_, symObjAddr: 0xAAFC, symBinAddr: 0x10000D6B0, symSize: 0x24 }
  - { offset: 0x2BC06, size: 0x8, addend: 0x0, symName: __ZNSt3__122__compressed_pair_elemINS_21__unordered_map_equalINS_12basic_stringIcNS_11char_traitsIcEENS_9allocatorIcEEEENS_17__hash_value_typeIS7_NS_10shared_ptrI3VarEEEENS_8equal_toIS7_EENS_4hashIS7_EELb1EEELi1ELb1EEC2B8ne180100ENS_18__default_init_tagE, symObjAddr: 0xAB20, symBinAddr: 0x10000D6D4, symSize: 0x2C }
  - { offset: 0x2BC3A, size: 0x8, addend: 0x0, symName: __ZNSt3__121__unordered_map_equalINS_12basic_stringIcNS_11char_traitsIcEENS_9allocatorIcEEEENS_17__hash_value_typeIS6_NS_10shared_ptrI3VarEEEENS_8equal_toIS6_EENS_4hashIS6_EELb1EEC2B8ne180100Ev, symObjAddr: 0xAB4C, symBinAddr: 0x10000D700, symSize: 0x14 }
  - { offset: 0x2BC7E, size: 0x8, addend: 0x0, symName: __ZN6LoggerlsIA45_cEERS_RKT_, symObjAddr: 0xAB60, symBinAddr: 0x10000D714, symSize: 0x12C }
  - { offset: 0x2BCD0, size: 0x8, addend: 0x0, symName: __ZN6LoggerlsImEERS_RKT_, symObjAddr: 0xAC8C, symBinAddr: 0x10000D840, symSize: 0x130 }
  - { offset: 0x2BD22, size: 0x8, addend: 0x0, symName: __ZN6LoggerlsEPFRNSt3__113basic_ostreamIcNS0_11char_traitsIcEEEES5_E, symObjAddr: 0xADBC, symBinAddr: 0x10000D970, symSize: 0x64 }
  - { offset: 0x2BD56, size: 0x8, addend: 0x0, symName: __ZNKSt3__110shared_ptrI7ASTNodeEptB8ne180100Ev, symObjAddr: 0xAE20, symBinAddr: 0x10000D9D4, symSize: 0x18 }
  - { offset: 0x2BD7C, size: 0x8, addend: 0x0, symName: __ZN7ASTNode8AddChildENSt3__110shared_ptrIS_EE, symObjAddr: 0xAE38, symBinAddr: 0x10000D9EC, symSize: 0x30 }
  - { offset: 0x2BDB1, size: 0x8, addend: 0x0, symName: __ZN8Compiler14ParseStatementEv, symObjAddr: 0xAE68, symBinAddr: 0x10000DA1C, symSize: 0x1A4 }
  - { offset: 0x2BDF1, size: 0x8, addend: 0x0, symName: __ZN6LoggerlsIA43_cEERS_RKT_, symObjAddr: 0xB044, symBinAddr: 0x10000DBF8, symSize: 0x12C }
  - { offset: 0x2BE43, size: 0x8, addend: 0x0, symName: __ZNSt3__16vectorIN6emplex5TokenENS_9allocatorIS2_EEE2atEm, symObjAddr: 0xB170, symBinAddr: 0x10000DD24, symSize: 0x68 }
  - { offset: 0x2BEF5, size: 0x8, addend: 0x0, symName: __ZN3ErrC1EmNSt3__112basic_stringIcNS0_11char_traitsIcEENS0_9allocatorIcEEEE, symObjAddr: 0xB1D8, symBinAddr: 0x10000DD8C, symSize: 0x3C }
  - { offset: 0x2BF3C, size: 0x8, addend: 0x0, symName: __ZN3ErrD1Ev, symObjAddr: 0xB214, symBinAddr: 0x10000DDC8, symSize: 0x2C }
  - { offset: 0x2BF68, size: 0x8, addend: 0x0, symName: __ZNSt3__16vectorINS_10shared_ptrI7ASTNodeEENS_9allocatorIS3_EEE9push_backB8ne180100ERKS3_, symObjAddr: 0xB240, symBinAddr: 0x10000DDF4, symSize: 0x90 }
  - { offset: 0x2BFAE, size: 0x8, addend: 0x0, symName: __ZNSt3__16vectorINS_10shared_ptrI7ASTNodeEENS_9allocatorIS3_EEE22__construct_one_at_endB8ne180100IJRKS3_EEEvDpOT_, symObjAddr: 0xB2D0, symBinAddr: 0x10000DE84, symSize: 0x90 }
  - { offset: 0x2BFFD, size: 0x8, addend: 0x0, symName: __ZNSt3__16vectorINS_10shared_ptrI7ASTNodeEENS_9allocatorIS3_EEE21__push_back_slow_pathIRKS3_EEPS3_OT_, symObjAddr: 0xB360, symBinAddr: 0x10000DF14, symSize: 0xE8 }
  - { offset: 0x2C078, size: 0x8, addend: 0x0, symName: __ZNSt3__16vectorINS_10shared_ptrI7ASTNodeEENS_9allocatorIS3_EEE21_ConstructTransactionC1B8ne180100ERS6_m, symObjAddr: 0xB448, symBinAddr: 0x10000DFFC, symSize: 0x3C }
  - { offset: 0x2C0C0, size: 0x8, addend: 0x0, symName: __ZNSt3__116allocator_traitsINS_9allocatorINS_10shared_ptrI7ASTNodeEEEEE9constructB8ne180100IS4_JRKS4_EvvEEvRS5_PT_DpOT0_, symObjAddr: 0xB484, symBinAddr: 0x10000E038, symSize: 0x30 }
  - { offset: 0x2C115, size: 0x8, addend: 0x0, symName: __ZNSt3__16vectorINS_10shared_ptrI7ASTNodeEENS_9allocatorIS3_EEE21_ConstructTransactionD1B8ne180100Ev, symObjAddr: 0xB4B4, symBinAddr: 0x10000E068, symSize: 0x2C }
  - { offset: 0x2C13F, size: 0x8, addend: 0x0, symName: __ZNSt3__16vectorINS_10shared_ptrI7ASTNodeEENS_9allocatorIS3_EEE21_ConstructTransactionC2B8ne180100ERS6_m, symObjAddr: 0xB4E0, symBinAddr: 0x10000E094, symSize: 0x44 }
  - { offset: 0x2C187, size: 0x8, addend: 0x0, symName: __ZNSt3__16vectorINS_10shared_ptrI7ASTNodeEENS_9allocatorIS3_EEE21_ConstructTransactionD2B8ne180100Ev, symObjAddr: 0xB584, symBinAddr: 0x10000E138, symSize: 0x20 }
  - { offset: 0x2C1B1, size: 0x8, addend: 0x0, symName: __ZNKSt3__16vectorINS_10shared_ptrI7ASTNodeEENS_9allocatorIS3_EEE11__recommendB8ne180100Em, symObjAddr: 0xB5A4, symBinAddr: 0x10000E158, symSize: 0xB4 }
  - { offset: 0x2C206, size: 0x8, addend: 0x0, symName: __ZNKSt3__16vectorINS_10shared_ptrI7ASTNodeEENS_9allocatorIS3_EEE4sizeB8ne180100Ev, symObjAddr: 0xB658, symBinAddr: 0x10000E20C, symSize: 0x28 }
  - { offset: 0x2C22C, size: 0x8, addend: 0x0, symName: __ZNSt3__114__split_bufferINS_10shared_ptrI7ASTNodeEERNS_9allocatorIS3_EEEC1EmmS6_, symObjAddr: 0xB680, symBinAddr: 0x10000E234, symSize: 0x44 }
  - { offset: 0x2C282, size: 0x8, addend: 0x0, symName: __ZNSt3__114__split_bufferINS_10shared_ptrI7ASTNodeEERNS_9allocatorIS3_EEED1Ev, symObjAddr: 0xB7D4, symBinAddr: 0x10000E388, symSize: 0x2C }
  - { offset: 0x2C2AE, size: 0x8, addend: 0x0, symName: __ZNKSt3__16vectorINS_10shared_ptrI7ASTNodeEENS_9allocatorIS3_EEE8max_sizeEv, symObjAddr: 0xB800, symBinAddr: 0x10000E3B4, symSize: 0x60 }
  - { offset: 0x2C2D6, size: 0x8, addend: 0x0, symName: __ZNKSt3__16vectorINS_10shared_ptrI7ASTNodeEENS_9allocatorIS3_EEE20__throw_length_errorB8ne180100Ev, symObjAddr: 0xB860, symBinAddr: 0x10000E414, symSize: 0x1C }
  - { offset: 0x2C308, size: 0x8, addend: 0x0, symName: __ZNSt3__116allocator_traitsINS_9allocatorINS_10shared_ptrI7ASTNodeEEEEE8max_sizeB8ne180100IS5_vvEEmRKS5_, symObjAddr: 0xB87C, symBinAddr: 0x10000E430, symSize: 0x28 }
  - { offset: 0x2C334, size: 0x8, addend: 0x0, symName: __ZNKSt3__16vectorINS_10shared_ptrI7ASTNodeEENS_9allocatorIS3_EEE7__allocB8ne180100Ev, symObjAddr: 0xB8A4, symBinAddr: 0x10000E458, symSize: 0x28 }
  - { offset: 0x2C35A, size: 0x8, addend: 0x0, symName: __ZNKSt3__117__compressed_pairIPNS_10shared_ptrI7ASTNodeEENS_9allocatorIS3_EEE6secondB8ne180100Ev, symObjAddr: 0xB8CC, symBinAddr: 0x10000E480, symSize: 0x24 }
  - { offset: 0x2C380, size: 0x8, addend: 0x0, symName: __ZNKSt3__122__compressed_pair_elemINS_9allocatorINS_10shared_ptrI7ASTNodeEEEELi1ELb1EE5__getB8ne180100Ev, symObjAddr: 0xB8F0, symBinAddr: 0x10000E4A4, symSize: 0x14 }
  - { offset: 0x2C3A6, size: 0x8, addend: 0x0, symName: __ZNSt3__114__split_bufferINS_10shared_ptrI7ASTNodeEERNS_9allocatorIS3_EEEC2EmmS6_, symObjAddr: 0xB904, symBinAddr: 0x10000E4B8, symSize: 0xD4 }
  - { offset: 0x2C419, size: 0x8, addend: 0x0, symName: __ZNSt3__117__compressed_pairIPNS_10shared_ptrI7ASTNodeEERNS_9allocatorIS3_EEEC1B8ne180100IDnS7_EEOT_OT0_, symObjAddr: 0xB9D8, symBinAddr: 0x10000E58C, symSize: 0x3C }
  - { offset: 0x2C471, size: 0x8, addend: 0x0, symName: __ZNSt3__114__split_bufferINS_10shared_ptrI7ASTNodeEERNS_9allocatorIS3_EEE7__allocB8ne180100Ev, symObjAddr: 0xBA54, symBinAddr: 0x10000E608, symSize: 0x28 }
  - { offset: 0x2C497, size: 0x8, addend: 0x0, symName: __ZNSt3__114__split_bufferINS_10shared_ptrI7ASTNodeEERNS_9allocatorIS3_EEE9__end_capB8ne180100Ev, symObjAddr: 0xBA7C, symBinAddr: 0x10000E630, symSize: 0x28 }
  - { offset: 0x2C4BD, size: 0x8, addend: 0x0, symName: __ZNSt3__117__compressed_pairIPNS_10shared_ptrI7ASTNodeEERNS_9allocatorIS3_EEEC2B8ne180100IDnS7_EEOT_OT0_, symObjAddr: 0xBAA4, symBinAddr: 0x10000E658, symSize: 0x48 }
  - { offset: 0x2C515, size: 0x8, addend: 0x0, symName: __ZNSt3__122__compressed_pair_elemIRNS_9allocatorINS_10shared_ptrI7ASTNodeEEEELi1ELb0EEC2B8ne180100IS6_vEEOT_, symObjAddr: 0xBAEC, symBinAddr: 0x10000E6A0, symSize: 0x20 }
  - { offset: 0x2C557, size: 0x8, addend: 0x0, symName: __ZNSt3__19allocatorINS_10shared_ptrI7ASTNodeEEE8allocateB8ne180100Em, symObjAddr: 0xBB0C, symBinAddr: 0x10000E6C0, symSize: 0x58 }
  - { offset: 0x2C58B, size: 0x8, addend: 0x0, symName: __ZNSt3__117__compressed_pairIPNS_10shared_ptrI7ASTNodeEERNS_9allocatorIS3_EEE6secondB8ne180100Ev, symObjAddr: 0xBB64, symBinAddr: 0x10000E718, symSize: 0x28 }
  - { offset: 0x2C5B1, size: 0x8, addend: 0x0, symName: __ZNSt3__122__compressed_pair_elemIRNS_9allocatorINS_10shared_ptrI7ASTNodeEEEELi1ELb0EE5__getB8ne180100Ev, symObjAddr: 0xBB8C, symBinAddr: 0x10000E740, symSize: 0x18 }
  - { offset: 0x2C5D7, size: 0x8, addend: 0x0, symName: __ZNSt3__117__compressed_pairIPNS_10shared_ptrI7ASTNodeEERNS_9allocatorIS3_EEE5firstB8ne180100Ev, symObjAddr: 0xBBA4, symBinAddr: 0x10000E758, symSize: 0x24 }
  - { offset: 0x2C5FD, size: 0x8, addend: 0x0, symName: __ZNSt3__116reverse_iteratorIPNS_10shared_ptrI7ASTNodeEEEC1B8ne180100ES4_, symObjAddr: 0xBCF4, symBinAddr: 0x10000E8A8, symSize: 0x34 }
  - { offset: 0x2C635, size: 0x8, addend: 0x0, symName: __ZNKSt3__116reverse_iteratorIPNS_10shared_ptrI7ASTNodeEEE4baseB8ne180100Ev, symObjAddr: 0xBD28, symBinAddr: 0x10000E8DC, symSize: 0x18 }
  - { offset: 0x2C65B, size: 0x8, addend: 0x0, symName: __ZNKSt3__16vectorINS_10shared_ptrI7ASTNodeEENS_9allocatorIS3_EEE14__annotate_newB8ne180100Em, symObjAddr: 0xBD7C, symBinAddr: 0x10000E930, symSize: 0x14 }
  - { offset: 0x2C690, size: 0x8, addend: 0x0, symName: __ZNSt3__129_AllocatorDestroyRangeReverseINS_9allocatorINS_10shared_ptrI7ASTNodeEEEENS_16reverse_iteratorIPS4_EEEC1B8ne180100ERS5_RS8_SB_, symObjAddr: 0xBDDC, symBinAddr: 0x10000E990, symSize: 0x44 }
  - { offset: 0x2C6E7, size: 0x8, addend: 0x0, symName: __ZNSt3__116allocator_traitsINS_9allocatorINS_10shared_ptrI7ASTNodeEEEEE9constructB8ne180100IS4_JS4_EvvEEvRS5_PT_DpOT0_, symObjAddr: 0xBE68, symBinAddr: 0x10000EA1C, symSize: 0x30 }
  - { offset: 0x2C73C, size: 0x8, addend: 0x0, symName: __ZNKSt3__116reverse_iteratorIPNS_10shared_ptrI7ASTNodeEEEdeB8ne180100Ev, symObjAddr: 0xBEBC, symBinAddr: 0x10000EA70, symSize: 0x28 }
  - { offset: 0x2C770, size: 0x8, addend: 0x0, symName: __ZNSt3__116reverse_iteratorIPNS_10shared_ptrI7ASTNodeEEEppB8ne180100Ev, symObjAddr: 0xBEE4, symBinAddr: 0x10000EA98, symSize: 0x20 }
  - { offset: 0x2C796, size: 0x8, addend: 0x0, symName: __ZNSt3__128__exception_guard_exceptionsINS_29_AllocatorDestroyRangeReverseINS_9allocatorINS_10shared_ptrI7ASTNodeEEEENS_16reverse_iteratorIPS5_EEEEE10__completeB8ne180100Ev, symObjAddr: 0xBF04, symBinAddr: 0x10000EAB8, symSize: 0x1C }
  - { offset: 0x2C7BC, size: 0x8, addend: 0x0, symName: __ZNSt3__128__exception_guard_exceptionsINS_29_AllocatorDestroyRangeReverseINS_9allocatorINS_10shared_ptrI7ASTNodeEEEENS_16reverse_iteratorIPS5_EEEEED1B8ne180100Ev, symObjAddr: 0xBF20, symBinAddr: 0x10000EAD4, symSize: 0x2C }
  - { offset: 0x2C7E6, size: 0x8, addend: 0x0, symName: __ZNSt3__128__exception_guard_exceptionsINS_29_AllocatorDestroyRangeReverseINS_9allocatorINS_10shared_ptrI7ASTNodeEEEENS_16reverse_iteratorIPS5_EEEEEC1B8ne180100ESA_, symObjAddr: 0xBF4C, symBinAddr: 0x10000EB00, symSize: 0x34 }
  - { offset: 0x2C81F, size: 0x8, addend: 0x0, symName: __ZNSt3__128__exception_guard_exceptionsINS_29_AllocatorDestroyRangeReverseINS_9allocatorINS_10shared_ptrI7ASTNodeEEEENS_16reverse_iteratorIPS5_EEEEEC2B8ne180100ESA_, symObjAddr: 0xBF80, symBinAddr: 0x10000EB34, symSize: 0x30 }
  - { offset: 0x2C858, size: 0x8, addend: 0x0, symName: __ZNSt3__129_AllocatorDestroyRangeReverseINS_9allocatorINS_10shared_ptrI7ASTNodeEEEENS_16reverse_iteratorIPS4_EEEC2B8ne180100ERS5_RS8_SB_, symObjAddr: 0xBFB0, symBinAddr: 0x10000EB64, symSize: 0x38 }
  - { offset: 0x2C8AF, size: 0x8, addend: 0x0, symName: __ZNSt3__110shared_ptrI7ASTNodeEC1B8ne180100EOS2_, symObjAddr: 0xC048, symBinAddr: 0x10000EBFC, symSize: 0x34 }
  - { offset: 0x2C8E8, size: 0x8, addend: 0x0, symName: __ZNSt3__110shared_ptrI7ASTNodeEC2B8ne180100EOS2_, symObjAddr: 0xC07C, symBinAddr: 0x10000EC30, symSize: 0x40 }
  - { offset: 0x2C927, size: 0x8, addend: 0x0, symName: __ZNSt3__119__to_address_helperINS_16reverse_iteratorIPNS_10shared_ptrI7ASTNodeEEEEvE6__callB8ne180100ERKS6_, symObjAddr: 0xC0BC, symBinAddr: 0x10000EC70, symSize: 0x38 }
  - { offset: 0x2C94A, size: 0x8, addend: 0x0, symName: __ZNKSt3__116reverse_iteratorIPNS_10shared_ptrI7ASTNodeEEEptB8ne180100Ev, symObjAddr: 0xC0F4, symBinAddr: 0x10000ECA8, symSize: 0x2C }
  - { offset: 0x2C970, size: 0x8, addend: 0x0, symName: __ZNSt3__128__exception_guard_exceptionsINS_29_AllocatorDestroyRangeReverseINS_9allocatorINS_10shared_ptrI7ASTNodeEEEENS_16reverse_iteratorIPS5_EEEEED2B8ne180100Ev, symObjAddr: 0xC1BC, symBinAddr: 0x10000ED70, symSize: 0x50 }
  - { offset: 0x2C99A, size: 0x8, addend: 0x0, symName: __ZNKSt3__129_AllocatorDestroyRangeReverseINS_9allocatorINS_10shared_ptrI7ASTNodeEEEENS_16reverse_iteratorIPS4_EEEclB8ne180100Ev, symObjAddr: 0xC20C, symBinAddr: 0x10000EDC0, symSize: 0xB4 }
  - { offset: 0x2C9C1, size: 0x8, addend: 0x0, symName: __ZNSt3__116reverse_iteratorINS0_IPNS_10shared_ptrI7ASTNodeEEEEEC1B8ne180100ES5_, symObjAddr: 0xC330, symBinAddr: 0x10000EEE4, symSize: 0x3C }
  - { offset: 0x2C9F9, size: 0x8, addend: 0x0, symName: __ZNSt3__116reverse_iteratorINS0_IPNS_10shared_ptrI7ASTNodeEEEEEppB8ne180100Ev, symObjAddr: 0xC3F0, symBinAddr: 0x10000EFA4, symSize: 0x30 }
  - { offset: 0x2CA1F, size: 0x8, addend: 0x0, symName: __ZNKSt3__116reverse_iteratorINS0_IPNS_10shared_ptrI7ASTNodeEEEEE4baseB8ne180100Ev, symObjAddr: 0xC420, symBinAddr: 0x10000EFD4, symSize: 0x24 }
  - { offset: 0x2CA4B, size: 0x8, addend: 0x0, symName: __ZNSt3__119__to_address_helperINS_16reverse_iteratorINS1_IPNS_10shared_ptrI7ASTNodeEEEEEEvE6__callB8ne180100ERKS7_, symObjAddr: 0xC444, symBinAddr: 0x10000EFF8, symSize: 0x38 }
  - { offset: 0x2CA6E, size: 0x8, addend: 0x0, symName: __ZNKSt3__116reverse_iteratorINS0_IPNS_10shared_ptrI7ASTNodeEEEEEptB8ne180100Ev, symObjAddr: 0xC47C, symBinAddr: 0x10000F030, symSize: 0x4C }
  - { offset: 0x2CA94, size: 0x8, addend: 0x0, symName: __ZNSt3__116reverse_iteratorIPNS_10shared_ptrI7ASTNodeEEEpLB8ne180100El, symObjAddr: 0xC578, symBinAddr: 0x10000F12C, symSize: 0x30 }
  - { offset: 0x2CAC8, size: 0x8, addend: 0x0, symName: __ZNSt3__116reverse_iteratorIPNS_10shared_ptrI7ASTNodeEEEmmB8ne180100Ev, symObjAddr: 0xC5A8, symBinAddr: 0x10000F15C, symSize: 0x20 }
  - { offset: 0x2CAEE, size: 0x8, addend: 0x0, symName: __ZNSt3__116reverse_iteratorINS0_IPNS_10shared_ptrI7ASTNodeEEEEEC2B8ne180100ES5_, symObjAddr: 0xC5C8, symBinAddr: 0x10000F17C, symSize: 0x2C }
  - { offset: 0x2CB26, size: 0x8, addend: 0x0, symName: __ZNSt3__116reverse_iteratorIPNS_10shared_ptrI7ASTNodeEEEC2B8ne180100ES4_, symObjAddr: 0xC5F4, symBinAddr: 0x10000F1A8, symSize: 0x28 }
  - { offset: 0x2CB5E, size: 0x8, addend: 0x0, symName: __ZNSt3__114__split_bufferINS_10shared_ptrI7ASTNodeEERNS_9allocatorIS3_EEED2Ev, symObjAddr: 0xC61C, symBinAddr: 0x10000F1D0, symSize: 0x8C }
  - { offset: 0x2CB8A, size: 0x8, addend: 0x0, symName: __ZNSt3__114__split_bufferINS_10shared_ptrI7ASTNodeEERNS_9allocatorIS3_EEE5clearB8ne180100Ev, symObjAddr: 0xC6A8, symBinAddr: 0x10000F25C, symSize: 0x28 }
  - { offset: 0x2CBB0, size: 0x8, addend: 0x0, symName: __ZNKSt3__114__split_bufferINS_10shared_ptrI7ASTNodeEERNS_9allocatorIS3_EEE8capacityB8ne180100Ev, symObjAddr: 0xC6D0, symBinAddr: 0x10000F284, symSize: 0x40 }
  - { offset: 0x2CBD6, size: 0x8, addend: 0x0, symName: __ZNSt3__114__split_bufferINS_10shared_ptrI7ASTNodeEERNS_9allocatorIS3_EEE17__destruct_at_endB8ne180100EPS3_, symObjAddr: 0xC710, symBinAddr: 0x10000F2C4, symSize: 0x2C }
  - { offset: 0x2CC0A, size: 0x8, addend: 0x0, symName: __ZNSt3__114__split_bufferINS_10shared_ptrI7ASTNodeEERNS_9allocatorIS3_EEE17__destruct_at_endB8ne180100EPS3_NS_17integral_constantIbLb0EEE, symObjAddr: 0xC73C, symBinAddr: 0x10000F2F0, symSize: 0x80 }
  - { offset: 0x2CC4A, size: 0x8, addend: 0x0, symName: __ZNKSt3__114__split_bufferINS_10shared_ptrI7ASTNodeEERNS_9allocatorIS3_EEE9__end_capB8ne180100Ev, symObjAddr: 0xC7BC, symBinAddr: 0x10000F370, symSize: 0x28 }
  - { offset: 0x2CC70, size: 0x8, addend: 0x0, symName: __ZNKSt3__117__compressed_pairIPNS_10shared_ptrI7ASTNodeEERNS_9allocatorIS3_EEE5firstB8ne180100Ev, symObjAddr: 0xC7E4, symBinAddr: 0x10000F398, symSize: 0x24 }
  - { offset: 0x2CCB0, size: 0x8, addend: 0x0, symName: __ZN6LoggerlsIA9_cEERS_RKT_, symObjAddr: 0xC808, symBinAddr: 0x10000F3BC, symSize: 0x12C }
  - { offset: 0x2CD0E, size: 0x8, addend: 0x0, symName: __ZN6LoggerlsIPKcEERS_RKT_, symObjAddr: 0xC934, symBinAddr: 0x10000F4E8, symSize: 0x130 }
  - { offset: 0x2CD60, size: 0x8, addend: 0x0, symName: __ZN6emplex5Lexer9TokenNameEi, symObjAddr: 0xCA64, symBinAddr: 0x10000F618, symSize: 0x28C }
  - { offset: 0x2CD9D, size: 0x8, addend: 0x0, symName: __ZN6LoggerlsIA4_cEERS_RKT_, symObjAddr: 0xCCF0, symBinAddr: 0x10000F8A4, symSize: 0x12C }
  - { offset: 0x2CDEF, size: 0x8, addend: 0x0, symName: __ZN6LoggerlsINSt3__112basic_stringIcNS1_11char_traitsIcEENS1_9allocatorIcEEEEEERS_RKT_, symObjAddr: 0xCE1C, symBinAddr: 0x10000F9D0, symSize: 0x12C }
  - { offset: 0x2CE41, size: 0x8, addend: 0x0, symName: __ZN8Compiler8MoveNextEv, symObjAddr: 0xCF48, symBinAddr: 0x10000FAFC, symSize: 0x20 }
  - { offset: 0x2CE67, size: 0x8, addend: 0x0, symName: __ZN7ASTNodeC1Ev, symObjAddr: 0xCF68, symBinAddr: 0x10000FB1C, symSize: 0x2C }
  - { offset: 0x2CE91, size: 0x8, addend: 0x0, symName: __ZN8Compiler8ParseVarEv, symObjAddr: 0xCF94, symBinAddr: 0x10000FB48, symSize: 0x60C }
  - { offset: 0x2CF26, size: 0x8, addend: 0x0, symName: __ZN8Compiler10ParsePrintEv, symObjAddr: 0xD5A0, symBinAddr: 0x100010154, symSize: 0x2B4 }
  - { offset: 0x2CF88, size: 0x8, addend: 0x0, symName: __ZN8Compiler7ParseIdEv, symObjAddr: 0xD854, symBinAddr: 0x100010408, symSize: 0x41C }
  - { offset: 0x2CFF9, size: 0x8, addend: 0x0, symName: __ZN8Compiler14ParseOpenScopeEv, symObjAddr: 0xDC70, symBinAddr: 0x100010824, symSize: 0x1A4 }
  - { offset: 0x2D03D, size: 0x8, addend: 0x0, symName: __ZN8Compiler15ParseCloseScopeEv, symObjAddr: 0xDE14, symBinAddr: 0x1000109C8, symSize: 0x74 }
  - { offset: 0x2D063, size: 0x8, addend: 0x0, symName: __ZN8Compiler15ParseExpressionEv, symObjAddr: 0xDE88, symBinAddr: 0x100010A3C, symSize: 0x2C4 }
  - { offset: 0x2D0A7, size: 0x8, addend: 0x0, symName: __ZN7ASTNodeC2Ev, symObjAddr: 0xE14C, symBinAddr: 0x100010D00, symSize: 0x40 }
  - { offset: 0x2D0D1, size: 0x8, addend: 0x0, symName: __ZN8Compiler10GetCurrentEv, symObjAddr: 0xE18C, symBinAddr: 0x100010D40, symSize: 0x148 }
  - { offset: 0x2D0F7, size: 0x8, addend: 0x0, symName: __ZN8Compiler7GetNextEv, symObjAddr: 0xE2D4, symBinAddr: 0x100010E88, symSize: 0x150 }
  - { offset: 0x2D11D, size: 0x8, addend: 0x0, symName: __ZN11SymbolTable6AddVarENSt3__112basic_stringIcNS0_11char_traitsIcEENS0_9allocatorIcEEEEm, symObjAddr: 0xE424, symBinAddr: 0x100010FD8, symSize: 0x1C8 }
  - { offset: 0x2D16F, size: 0x8, addend: 0x0, symName: __ZN7ASTNodeC1ENS_4TypeEN6emplex5TokenE, symObjAddr: 0xE5EC, symBinAddr: 0x1000111A0, symSize: 0x3C }
  - { offset: 0x2D1B6, size: 0x8, addend: 0x0, symName: __ZN7ASTNode5SetIdEm, symObjAddr: 0xE628, symBinAddr: 0x1000111DC, symSize: 0x20 }
  - { offset: 0x2D1EA, size: 0x8, addend: 0x0, symName: __ZNSt3__16vectorIN6emplex5TokenENS_9allocatorIS2_EEEixB8ne180100Em, symObjAddr: 0xE648, symBinAddr: 0x1000111FC, symSize: 0x2C }
  - { offset: 0x2D221, size: 0x8, addend: 0x0, symName: __ZNKSt3__16vectorI8VarTableNS_9allocatorIS1_EEE5emptyB8ne180100Ev, symObjAddr: 0xE674, symBinAddr: 0x100011228, symSize: 0x28 }
  - { offset: 0x2D247, size: 0x8, addend: 0x0, symName: __ZNKSt3__16vectorINS_10shared_ptrI3VarEENS_9allocatorIS3_EEE4sizeB8ne180100Ev, symObjAddr: 0xE69C, symBinAddr: 0x100011250, symSize: 0x28 }
  - { offset: 0x2D26D, size: 0x8, addend: 0x0, symName: __ZNSt3__16vectorINS_10shared_ptrI3VarEENS_9allocatorIS3_EEE9push_backB8ne180100EOS3_, symObjAddr: 0xE6C4, symBinAddr: 0x100011278, symSize: 0x90 }
  - { offset: 0x2D2B3, size: 0x8, addend: 0x0, symName: __ZNSt3__16vectorI8VarTableNS_9allocatorIS1_EEE4backB8ne180100Ev, symObjAddr: 0xE754, symBinAddr: 0x100011308, symSize: 0x1C }
  - { offset: 0x2D2D9, size: 0x8, addend: 0x0, symName: __ZN8VarTable6AddVarEmiNSt3__112basic_stringIcNS0_11char_traitsIcEENS0_9allocatorIcEEEEd, symObjAddr: 0xE770, symBinAddr: 0x100011324, symSize: 0x260 }
  - { offset: 0x2D338, size: 0x8, addend: 0x0, symName: __ZNSt3__16vectorINS_10shared_ptrI3VarEENS_9allocatorIS3_EEE9__end_capB8ne180100Ev, symObjAddr: 0xE9D0, symBinAddr: 0x100011584, symSize: 0x28 }
  - { offset: 0x2D35E, size: 0x8, addend: 0x0, symName: __ZNSt3__16vectorINS_10shared_ptrI3VarEENS_9allocatorIS3_EEE22__construct_one_at_endB8ne180100IJS3_EEEvDpOT_, symObjAddr: 0xE9F8, symBinAddr: 0x1000115AC, symSize: 0x90 }
  - { offset: 0x2D3AD, size: 0x8, addend: 0x0, symName: __ZNSt3__16vectorINS_10shared_ptrI3VarEENS_9allocatorIS3_EEE21__push_back_slow_pathIS3_EEPS3_OT_, symObjAddr: 0xEA88, symBinAddr: 0x10001163C, symSize: 0xE8 }
  - { offset: 0x2D40B, size: 0x8, addend: 0x0, symName: __ZNSt3__117__compressed_pairIPNS_10shared_ptrI3VarEENS_9allocatorIS3_EEE5firstB8ne180100Ev, symObjAddr: 0xEB70, symBinAddr: 0x100011724, symSize: 0x24 }
  - { offset: 0x2D431, size: 0x8, addend: 0x0, symName: __ZNSt3__122__compressed_pair_elemIPNS_10shared_ptrI3VarEELi0ELb0EE5__getB8ne180100Ev, symObjAddr: 0xEB94, symBinAddr: 0x100011748, symSize: 0x14 }
  - { offset: 0x2D474, size: 0x8, addend: 0x0, symName: __ZNSt3__16vectorINS_10shared_ptrI3VarEENS_9allocatorIS3_EEE21_ConstructTransactionC1B8ne180100ERS6_m, symObjAddr: 0xEBA8, symBinAddr: 0x10001175C, symSize: 0x3C }
  - { offset: 0x2D4BC, size: 0x8, addend: 0x0, symName: __ZNSt3__116allocator_traitsINS_9allocatorINS_10shared_ptrI3VarEEEEE9constructB8ne180100IS4_JS4_EvvEEvRS5_PT_DpOT0_, symObjAddr: 0xEBE4, symBinAddr: 0x100011798, symSize: 0x30 }
  - { offset: 0x2D511, size: 0x8, addend: 0x0, symName: __ZNSt3__16vectorINS_10shared_ptrI3VarEENS_9allocatorIS3_EEE21_ConstructTransactionD1B8ne180100Ev, symObjAddr: 0xEC14, symBinAddr: 0x1000117C8, symSize: 0x2C }
  - { offset: 0x2D53B, size: 0x8, addend: 0x0, symName: __ZNSt3__16vectorINS_10shared_ptrI3VarEENS_9allocatorIS3_EEE21_ConstructTransactionC2B8ne180100ERS6_m, symObjAddr: 0xEC40, symBinAddr: 0x1000117F4, symSize: 0x44 }
  - { offset: 0x2D583, size: 0x8, addend: 0x0, symName: __ZNSt3__110shared_ptrI3VarEC1B8ne180100EOS2_, symObjAddr: 0xECE4, symBinAddr: 0x100011898, symSize: 0x34 }
  - { offset: 0x2D5BC, size: 0x8, addend: 0x0, symName: __ZNSt3__110shared_ptrI3VarEC2B8ne180100EOS2_, symObjAddr: 0xED18, symBinAddr: 0x1000118CC, symSize: 0x40 }
  - { offset: 0x2D5F5, size: 0x8, addend: 0x0, symName: __ZNSt3__16vectorINS_10shared_ptrI3VarEENS_9allocatorIS3_EEE21_ConstructTransactionD2B8ne180100Ev, symObjAddr: 0xED58, symBinAddr: 0x10001190C, symSize: 0x20 }
  - { offset: 0x2D61F, size: 0x8, addend: 0x0, symName: __ZNKSt3__16vectorINS_10shared_ptrI3VarEENS_9allocatorIS3_EEE11__recommendB8ne180100Em, symObjAddr: 0xED78, symBinAddr: 0x10001192C, symSize: 0xB4 }
  - { offset: 0x2D674, size: 0x8, addend: 0x0, symName: __ZNSt3__114__split_bufferINS_10shared_ptrI3VarEERNS_9allocatorIS3_EEEC1EmmS6_, symObjAddr: 0xEE2C, symBinAddr: 0x1000119E0, symSize: 0x44 }
  - { offset: 0x2D6CA, size: 0x8, addend: 0x0, symName: __ZNSt3__114__split_bufferINS_10shared_ptrI3VarEERNS_9allocatorIS3_EEED1Ev, symObjAddr: 0xEF80, symBinAddr: 0x100011B34, symSize: 0x2C }
  - { offset: 0x2D6F6, size: 0x8, addend: 0x0, symName: __ZNKSt3__16vectorINS_10shared_ptrI3VarEENS_9allocatorIS3_EEE8max_sizeEv, symObjAddr: 0xEFAC, symBinAddr: 0x100011B60, symSize: 0x60 }
  - { offset: 0x2D71E, size: 0x8, addend: 0x0, symName: __ZNKSt3__16vectorINS_10shared_ptrI3VarEENS_9allocatorIS3_EEE20__throw_length_errorB8ne180100Ev, symObjAddr: 0xF00C, symBinAddr: 0x100011BC0, symSize: 0x1C }
  - { offset: 0x2D750, size: 0x8, addend: 0x0, symName: __ZNSt3__116allocator_traitsINS_9allocatorINS_10shared_ptrI3VarEEEEE8max_sizeB8ne180100IS5_vvEEmRKS5_, symObjAddr: 0xF028, symBinAddr: 0x100011BDC, symSize: 0x28 }
  - { offset: 0x2D77C, size: 0x8, addend: 0x0, symName: __ZNKSt3__16vectorINS_10shared_ptrI3VarEENS_9allocatorIS3_EEE7__allocB8ne180100Ev, symObjAddr: 0xF050, symBinAddr: 0x100011C04, symSize: 0x28 }
  - { offset: 0x2D7A2, size: 0x8, addend: 0x0, symName: __ZNKSt3__117__compressed_pairIPNS_10shared_ptrI3VarEENS_9allocatorIS3_EEE6secondB8ne180100Ev, symObjAddr: 0xF078, symBinAddr: 0x100011C2C, symSize: 0x24 }
  - { offset: 0x2D7C8, size: 0x8, addend: 0x0, symName: __ZNKSt3__122__compressed_pair_elemINS_9allocatorINS_10shared_ptrI3VarEEEELi1ELb1EE5__getB8ne180100Ev, symObjAddr: 0xF09C, symBinAddr: 0x100011C50, symSize: 0x14 }
  - { offset: 0x2D7EE, size: 0x8, addend: 0x0, symName: __ZNSt3__114__split_bufferINS_10shared_ptrI3VarEERNS_9allocatorIS3_EEEC2EmmS6_, symObjAddr: 0xF0B0, symBinAddr: 0x100011C64, symSize: 0xD4 }
  - { offset: 0x2D861, size: 0x8, addend: 0x0, symName: __ZNSt3__117__compressed_pairIPNS_10shared_ptrI3VarEERNS_9allocatorIS3_EEEC1B8ne180100IDnS7_EEOT_OT0_, symObjAddr: 0xF184, symBinAddr: 0x100011D38, symSize: 0x3C }
  - { offset: 0x2D8B9, size: 0x8, addend: 0x0, symName: __ZNSt3__114__split_bufferINS_10shared_ptrI3VarEERNS_9allocatorIS3_EEE7__allocB8ne180100Ev, symObjAddr: 0xF200, symBinAddr: 0x100011DB4, symSize: 0x28 }
  - { offset: 0x2D8DF, size: 0x8, addend: 0x0, symName: __ZNSt3__114__split_bufferINS_10shared_ptrI3VarEERNS_9allocatorIS3_EEE9__end_capB8ne180100Ev, symObjAddr: 0xF228, symBinAddr: 0x100011DDC, symSize: 0x28 }
  - { offset: 0x2D905, size: 0x8, addend: 0x0, symName: __ZNSt3__117__compressed_pairIPNS_10shared_ptrI3VarEERNS_9allocatorIS3_EEEC2B8ne180100IDnS7_EEOT_OT0_, symObjAddr: 0xF250, symBinAddr: 0x100011E04, symSize: 0x48 }
  - { offset: 0x2D95D, size: 0x8, addend: 0x0, symName: __ZNSt3__122__compressed_pair_elemIRNS_9allocatorINS_10shared_ptrI3VarEEEELi1ELb0EEC2B8ne180100IS6_vEEOT_, symObjAddr: 0xF298, symBinAddr: 0x100011E4C, symSize: 0x20 }
  - { offset: 0x2D99F, size: 0x8, addend: 0x0, symName: __ZNSt3__19allocatorINS_10shared_ptrI3VarEEE8allocateB8ne180100Em, symObjAddr: 0xF2B8, symBinAddr: 0x100011E6C, symSize: 0x58 }
  - { offset: 0x2D9D3, size: 0x8, addend: 0x0, symName: __ZNSt3__117__compressed_pairIPNS_10shared_ptrI3VarEERNS_9allocatorIS3_EEE6secondB8ne180100Ev, symObjAddr: 0xF310, symBinAddr: 0x100011EC4, symSize: 0x28 }
  - { offset: 0x2D9F9, size: 0x8, addend: 0x0, symName: __ZNSt3__122__compressed_pair_elemIRNS_9allocatorINS_10shared_ptrI3VarEEEELi1ELb0EE5__getB8ne180100Ev, symObjAddr: 0xF338, symBinAddr: 0x100011EEC, symSize: 0x18 }
  - { offset: 0x2DA1F, size: 0x8, addend: 0x0, symName: __ZNSt3__117__compressed_pairIPNS_10shared_ptrI3VarEERNS_9allocatorIS3_EEE5firstB8ne180100Ev, symObjAddr: 0xF350, symBinAddr: 0x100011F04, symSize: 0x24 }
  - { offset: 0x2DA45, size: 0x8, addend: 0x0, symName: __ZNSt3__116reverse_iteratorIPNS_10shared_ptrI3VarEEEC1B8ne180100ES4_, symObjAddr: 0xF4A0, symBinAddr: 0x100012054, symSize: 0x34 }
  - { offset: 0x2DA7D, size: 0x8, addend: 0x0, symName: __ZNKSt3__116reverse_iteratorIPNS_10shared_ptrI3VarEEE4baseB8ne180100Ev, symObjAddr: 0xF4D4, symBinAddr: 0x100012088, symSize: 0x18 }
  - { offset: 0x2DAA3, size: 0x8, addend: 0x0, symName: __ZNKSt3__16vectorINS_10shared_ptrI3VarEENS_9allocatorIS3_EEE14__annotate_newB8ne180100Em, symObjAddr: 0xF528, symBinAddr: 0x1000120DC, symSize: 0x14 }
  - { offset: 0x2DAD8, size: 0x8, addend: 0x0, symName: __ZNSt3__129_AllocatorDestroyRangeReverseINS_9allocatorINS_10shared_ptrI3VarEEEENS_16reverse_iteratorIPS4_EEEC1B8ne180100ERS5_RS8_SB_, symObjAddr: 0xF588, symBinAddr: 0x10001213C, symSize: 0x44 }
  - { offset: 0x2DB2F, size: 0x8, addend: 0x0, symName: __ZNKSt3__116reverse_iteratorIPNS_10shared_ptrI3VarEEEdeB8ne180100Ev, symObjAddr: 0xF638, symBinAddr: 0x1000121EC, symSize: 0x28 }
  - { offset: 0x2DB63, size: 0x8, addend: 0x0, symName: __ZNSt3__116reverse_iteratorIPNS_10shared_ptrI3VarEEEppB8ne180100Ev, symObjAddr: 0xF660, symBinAddr: 0x100012214, symSize: 0x20 }
  - { offset: 0x2DB89, size: 0x8, addend: 0x0, symName: __ZNSt3__128__exception_guard_exceptionsINS_29_AllocatorDestroyRangeReverseINS_9allocatorINS_10shared_ptrI3VarEEEENS_16reverse_iteratorIPS5_EEEEE10__completeB8ne180100Ev, symObjAddr: 0xF680, symBinAddr: 0x100012234, symSize: 0x1C }
  - { offset: 0x2DBAF, size: 0x8, addend: 0x0, symName: __ZNSt3__128__exception_guard_exceptionsINS_29_AllocatorDestroyRangeReverseINS_9allocatorINS_10shared_ptrI3VarEEEENS_16reverse_iteratorIPS5_EEEEED1B8ne180100Ev, symObjAddr: 0xF69C, symBinAddr: 0x100012250, symSize: 0x2C }
  - { offset: 0x2DBD9, size: 0x8, addend: 0x0, symName: __ZNSt3__128__exception_guard_exceptionsINS_29_AllocatorDestroyRangeReverseINS_9allocatorINS_10shared_ptrI3VarEEEENS_16reverse_iteratorIPS5_EEEEEC1B8ne180100ESA_, symObjAddr: 0xF6C8, symBinAddr: 0x10001227C, symSize: 0x34 }
  - { offset: 0x2DC12, size: 0x8, addend: 0x0, symName: __ZNSt3__128__exception_guard_exceptionsINS_29_AllocatorDestroyRangeReverseINS_9allocatorINS_10shared_ptrI3VarEEEENS_16reverse_iteratorIPS5_EEEEEC2B8ne180100ESA_, symObjAddr: 0xF6FC, symBinAddr: 0x1000122B0, symSize: 0x30 }
  - { offset: 0x2DC4B, size: 0x8, addend: 0x0, symName: __ZNSt3__129_AllocatorDestroyRangeReverseINS_9allocatorINS_10shared_ptrI3VarEEEENS_16reverse_iteratorIPS4_EEEC2B8ne180100ERS5_RS8_SB_, symObjAddr: 0xF72C, symBinAddr: 0x1000122E0, symSize: 0x38 }
  - { offset: 0x2DCA8, size: 0x8, addend: 0x0, symName: __ZNSt3__119__to_address_helperINS_16reverse_iteratorIPNS_10shared_ptrI3VarEEEEvE6__callB8ne180100ERKS6_, symObjAddr: 0xF764, symBinAddr: 0x100012318, symSize: 0x38 }
  - { offset: 0x2DCCB, size: 0x8, addend: 0x0, symName: __ZNKSt3__116reverse_iteratorIPNS_10shared_ptrI3VarEEEptB8ne180100Ev, symObjAddr: 0xF79C, symBinAddr: 0x100012350, symSize: 0x2C }
  - { offset: 0x2DCF1, size: 0x8, addend: 0x0, symName: __ZNSt3__128__exception_guard_exceptionsINS_29_AllocatorDestroyRangeReverseINS_9allocatorINS_10shared_ptrI3VarEEEENS_16reverse_iteratorIPS5_EEEEED2B8ne180100Ev, symObjAddr: 0xF864, symBinAddr: 0x100012418, symSize: 0x50 }
  - { offset: 0x2DD1B, size: 0x8, addend: 0x0, symName: __ZNKSt3__129_AllocatorDestroyRangeReverseINS_9allocatorINS_10shared_ptrI3VarEEEENS_16reverse_iteratorIPS4_EEEclB8ne180100Ev, symObjAddr: 0xF8B4, symBinAddr: 0x100012468, symSize: 0xB4 }
  - { offset: 0x2DD42, size: 0x8, addend: 0x0, symName: __ZNSt3__116reverse_iteratorINS0_IPNS_10shared_ptrI3VarEEEEEC1B8ne180100ES5_, symObjAddr: 0xF9D8, symBinAddr: 0x10001258C, symSize: 0x3C }
  - { offset: 0x2DD7A, size: 0x8, addend: 0x0, symName: __ZNSt3__116reverse_iteratorINS0_IPNS_10shared_ptrI3VarEEEEEppB8ne180100Ev, symObjAddr: 0xFA98, symBinAddr: 0x10001264C, symSize: 0x30 }
  - { offset: 0x2DDA0, size: 0x8, addend: 0x0, symName: __ZNKSt3__116reverse_iteratorINS0_IPNS_10shared_ptrI3VarEEEEE4baseB8ne180100Ev, symObjAddr: 0xFAC8, symBinAddr: 0x10001267C, symSize: 0x24 }
  - { offset: 0x2DDCC, size: 0x8, addend: 0x0, symName: __ZNSt3__119__to_address_helperINS_16reverse_iteratorINS1_IPNS_10shared_ptrI3VarEEEEEEvE6__callB8ne180100ERKS7_, symObjAddr: 0xFAEC, symBinAddr: 0x1000126A0, symSize: 0x38 }
  - { offset: 0x2DDEF, size: 0x8, addend: 0x0, symName: __ZNKSt3__116reverse_iteratorINS0_IPNS_10shared_ptrI3VarEEEEEptB8ne180100Ev, symObjAddr: 0xFB24, symBinAddr: 0x1000126D8, symSize: 0x4C }
  - { offset: 0x2DE15, size: 0x8, addend: 0x0, symName: __ZNSt3__116reverse_iteratorIPNS_10shared_ptrI3VarEEEpLB8ne180100El, symObjAddr: 0xFC20, symBinAddr: 0x1000127D4, symSize: 0x30 }
  - { offset: 0x2DE49, size: 0x8, addend: 0x0, symName: __ZNSt3__116reverse_iteratorIPNS_10shared_ptrI3VarEEEmmB8ne180100Ev, symObjAddr: 0xFC50, symBinAddr: 0x100012804, symSize: 0x20 }
  - { offset: 0x2DE6F, size: 0x8, addend: 0x0, symName: __ZNSt3__116reverse_iteratorINS0_IPNS_10shared_ptrI3VarEEEEEC2B8ne180100ES5_, symObjAddr: 0xFC70, symBinAddr: 0x100012824, symSize: 0x2C }
  - { offset: 0x2DEA7, size: 0x8, addend: 0x0, symName: __ZNSt3__116reverse_iteratorIPNS_10shared_ptrI3VarEEEC2B8ne180100ES4_, symObjAddr: 0xFC9C, symBinAddr: 0x100012850, symSize: 0x28 }
  - { offset: 0x2DEDF, size: 0x8, addend: 0x0, symName: __ZNSt3__114__split_bufferINS_10shared_ptrI3VarEERNS_9allocatorIS3_EEED2Ev, symObjAddr: 0xFCC4, symBinAddr: 0x100012878, symSize: 0x8C }
  - { offset: 0x2DF0B, size: 0x8, addend: 0x0, symName: __ZNSt3__114__split_bufferINS_10shared_ptrI3VarEERNS_9allocatorIS3_EEE5clearB8ne180100Ev, symObjAddr: 0xFD50, symBinAddr: 0x100012904, symSize: 0x28 }
  - { offset: 0x2DF31, size: 0x8, addend: 0x0, symName: __ZNKSt3__114__split_bufferINS_10shared_ptrI3VarEERNS_9allocatorIS3_EEE8capacityB8ne180100Ev, symObjAddr: 0xFD78, symBinAddr: 0x10001292C, symSize: 0x40 }
  - { offset: 0x2DF57, size: 0x8, addend: 0x0, symName: __ZNSt3__114__split_bufferINS_10shared_ptrI3VarEERNS_9allocatorIS3_EEE17__destruct_at_endB8ne180100EPS3_, symObjAddr: 0xFDB8, symBinAddr: 0x10001296C, symSize: 0x2C }
  - { offset: 0x2DF8B, size: 0x8, addend: 0x0, symName: __ZNSt3__114__split_bufferINS_10shared_ptrI3VarEERNS_9allocatorIS3_EEE17__destruct_at_endB8ne180100EPS3_NS_17integral_constantIbLb0EEE, symObjAddr: 0xFDE4, symBinAddr: 0x100012998, symSize: 0x80 }
  - { offset: 0x2DFCB, size: 0x8, addend: 0x0, symName: __ZNKSt3__114__split_bufferINS_10shared_ptrI3VarEERNS_9allocatorIS3_EEE9__end_capB8ne180100Ev, symObjAddr: 0xFE64, symBinAddr: 0x100012A18, symSize: 0x28 }
  - { offset: 0x2DFF1, size: 0x8, addend: 0x0, symName: __ZNKSt3__117__compressed_pairIPNS_10shared_ptrI3VarEERNS_9allocatorIS3_EEE5firstB8ne180100Ev, symObjAddr: 0xFE8C, symBinAddr: 0x100012A40, symSize: 0x24 }
  - { offset: 0x2E017, size: 0x8, addend: 0x0, symName: __ZNK8VarTable6HasVarENSt3__112basic_stringIcNS0_11char_traitsIcEENS0_9allocatorIcEEEE, symObjAddr: 0xFEB0, symBinAddr: 0x100012A64, symSize: 0x64 }
  - { offset: 0x2E04C, size: 0x8, addend: 0x0, symName: __ZNSt3__113unordered_mapINS_12basic_stringIcNS_11char_traitsIcEENS_9allocatorIcEEEENS_10shared_ptrI3VarEENS_4hashIS6_EENS_8equal_toIS6_EENS4_INS_4pairIKS6_S9_EEEEEixERSF_, symObjAddr: 0xFF94, symBinAddr: 0x100012B48, symSize: 0x80 }
  - { offset: 0x2E083, size: 0x8, addend: 0x0, symName: __ZNSt3__110shared_ptrI3VarEaSB8ne180100EOS2_, symObjAddr: 0x10014, symBinAddr: 0x100012BC8, symSize: 0x50 }
  - { offset: 0x2E0BD, size: 0x8, addend: 0x0, symName: __ZN3VarD1Ev, symObjAddr: 0x10064, symBinAddr: 0x100012C18, symSize: 0x2C }
  - { offset: 0x2E0E9, size: 0x8, addend: 0x0, symName: __ZNSt3__110shared_ptrI3VarEC1B8ne180100ERKS2_, symObjAddr: 0x10090, symBinAddr: 0x100012C44, symSize: 0x34 }
  - { offset: 0x2E122, size: 0x8, addend: 0x0, symName: __ZNKSt3__113unordered_mapINS_12basic_stringIcNS_11char_traitsIcEENS_9allocatorIcEEEENS_10shared_ptrI3VarEENS_4hashIS6_EENS_8equal_toIS6_EENS4_INS_4pairIKS6_S9_EEEEE4findB8ne180100ERSF_, symObjAddr: 0x100F4, symBinAddr: 0x100012CA8, symSize: 0x40 }
  - { offset: 0x2E157, size: 0x8, addend: 0x0, symName: __ZNKSt3__113unordered_mapINS_12basic_stringIcNS_11char_traitsIcEENS_9allocatorIcEEEENS_10shared_ptrI3VarEENS_4hashIS6_EENS_8equal_toIS6_EENS4_INS_4pairIKS6_S9_EEEEE3endB8ne180100Ev, symObjAddr: 0x10134, symBinAddr: 0x100012CE8, symSize: 0x38 }
  - { offset: 0x2E17D, size: 0x8, addend: 0x0, symName: __ZNKSt3__112__hash_tableINS_17__hash_value_typeINS_12basic_stringIcNS_11char_traitsIcEENS_9allocatorIcEEEENS_10shared_ptrI3VarEEEENS_22__unordered_map_hasherIS7_SB_NS_4hashIS7_EENS_8equal_toIS7_EELb1EEENS_21__unordered_map_equalIS7_SB_SG_SE_Lb1EEENS5_ISB_EEE4findIS7_EENS_21__hash_const_iteratorIPNS_11__hash_nodeISB_PvEEEERKT_, symObjAddr: 0x1019C, symBinAddr: 0x100012D50, symSize: 0x1B8 }
  - { offset: 0x2E207, size: 0x8, addend: 0x0, symName: __ZNSt3__125__hash_map_const_iteratorINS_21__hash_const_iteratorIPNS_11__hash_nodeINS_17__hash_value_typeINS_12basic_stringIcNS_11char_traitsIcEENS_9allocatorIcEEEENS_10shared_ptrI3VarEEEEPvEEEEEC1B8ne180100ESH_, symObjAddr: 0x10354, symBinAddr: 0x100012F08, symSize: 0x34 }
  - { offset: 0x2E240, size: 0x8, addend: 0x0, symName: __ZNKSt3__112__hash_tableINS_17__hash_value_typeINS_12basic_stringIcNS_11char_traitsIcEENS_9allocatorIcEEEENS_10shared_ptrI3VarEEEENS_22__unordered_map_hasherIS7_SB_NS_4hashIS7_EENS_8equal_toIS7_EELb1EEENS_21__unordered_map_equalIS7_SB_SG_SE_Lb1EEENS5_ISB_EEE13hash_functionB8ne180100Ev, symObjAddr: 0x10388, symBinAddr: 0x100012F3C, symSize: 0x28 }
  - { offset: 0x2E266, size: 0x8, addend: 0x0, symName: __ZNKSt3__122__unordered_map_hasherINS_12basic_stringIcNS_11char_traitsIcEENS_9allocatorIcEEEENS_17__hash_value_typeIS6_NS_10shared_ptrI3VarEEEENS_4hashIS6_EENS_8equal_toIS6_EELb1EEclB8ne180100ERKS6_, symObjAddr: 0x103B0, symBinAddr: 0x100012F64, symSize: 0x2C }
  - { offset: 0x2E29B, size: 0x8, addend: 0x0, symName: __ZNKSt3__112__hash_tableINS_17__hash_value_typeINS_12basic_stringIcNS_11char_traitsIcEENS_9allocatorIcEEEENS_10shared_ptrI3VarEEEENS_22__unordered_map_hasherIS7_SB_NS_4hashIS7_EENS_8equal_toIS7_EELb1EEENS_21__unordered_map_equalIS7_SB_SG_SE_Lb1EEENS5_ISB_EEE6key_eqB8ne180100Ev, symObjAddr: 0x103DC, symBinAddr: 0x100012F90, symSize: 0x28 }
  - { offset: 0x2E2C1, size: 0x8, addend: 0x0, symName: __ZNKSt3__121__unordered_map_equalINS_12basic_stringIcNS_11char_traitsIcEENS_9allocatorIcEEEENS_17__hash_value_typeIS6_NS_10shared_ptrI3VarEEEENS_8equal_toIS6_EENS_4hashIS6_EELb1EEclB8ne180100ERKSB_RKS6_, symObjAddr: 0x10404, symBinAddr: 0x100012FB8, symSize: 0x48 }
  - { offset: 0x2E305, size: 0x8, addend: 0x0, symName: __ZNSt3__121__hash_const_iteratorIPNS_11__hash_nodeINS_17__hash_value_typeINS_12basic_stringIcNS_11char_traitsIcEENS_9allocatorIcEEEENS_10shared_ptrI3VarEEEEPvEEEC1B8ne180100EPNS_16__hash_node_baseISF_EE, symObjAddr: 0x1044C, symBinAddr: 0x100013000, symSize: 0x34 }
  - { offset: 0x2E33E, size: 0x8, addend: 0x0, symName: __ZNKSt3__112__hash_tableINS_17__hash_value_typeINS_12basic_stringIcNS_11char_traitsIcEENS_9allocatorIcEEEENS_10shared_ptrI3VarEEEENS_22__unordered_map_hasherIS7_SB_NS_4hashIS7_EENS_8equal_toIS7_EELb1EEENS_21__unordered_map_equalIS7_SB_SG_SE_Lb1EEENS5_ISB_EEE3endEv, symObjAddr: 0x10480, symBinAddr: 0x100013034, symSize: 0x2C }
  - { offset: 0x2E366, size: 0x8, addend: 0x0, symName: __ZNKSt3__117__compressed_pairImNS_22__unordered_map_hasherINS_12basic_stringIcNS_11char_traitsIcEENS_9allocatorIcEEEENS_17__hash_value_typeIS7_NS_10shared_ptrI3VarEEEENS_4hashIS7_EENS_8equal_toIS7_EELb1EEEE6secondB8ne180100Ev, symObjAddr: 0x104AC, symBinAddr: 0x100013060, symSize: 0x24 }
  - { offset: 0x2E38C, size: 0x8, addend: 0x0, symName: __ZNKSt3__122__compressed_pair_elemINS_22__unordered_map_hasherINS_12basic_stringIcNS_11char_traitsIcEENS_9allocatorIcEEEENS_17__hash_value_typeIS7_NS_10shared_ptrI3VarEEEENS_4hashIS7_EENS_8equal_toIS7_EELb1EEELi1ELb1EE5__getB8ne180100Ev, symObjAddr: 0x104D0, symBinAddr: 0x100013084, symSize: 0x14 }
  - { offset: 0x2E3B2, size: 0x8, addend: 0x0, symName: __ZNKSt3__113__string_hashIcNS_9allocatorIcEEEclB8ne180100ERKNS_12basic_stringIcNS_11char_traitsIcEES2_EE, symObjAddr: 0x104E4, symBinAddr: 0x100013098, symSize: 0x64 }
  - { offset: 0x2E3E7, size: 0x8, addend: 0x0, symName: __ZNKSt3__121__murmur2_or_cityhashImLm64EEclB8ne180100EPKvm, symObjAddr: 0x10584, symBinAddr: 0x100013138, symSize: 0x410 }
  - { offset: 0x2E481, size: 0x8, addend: 0x0, symName: __ZNSt3__121__murmur2_or_cityhashImLm64EE18__hash_len_0_to_16B8ne180100EPKcm, symObjAddr: 0x10994, symBinAddr: 0x100013548, symSize: 0x1C8 }
  - { offset: 0x2E55A, size: 0x8, addend: 0x0, symName: __ZNSt3__121__murmur2_or_cityhashImLm64EE19__hash_len_17_to_32B8ne180100EPKcm, symObjAddr: 0x10B5C, symBinAddr: 0x100013710, symSize: 0x130 }
  - { offset: 0x2E5C3, size: 0x8, addend: 0x0, symName: __ZNSt3__121__murmur2_or_cityhashImLm64EE19__hash_len_33_to_64B8ne180100EPKcm, symObjAddr: 0x10C8C, symBinAddr: 0x100013840, symSize: 0x2B8 }
  - { offset: 0x2E675, size: 0x8, addend: 0x0, symName: __ZNSt3__121__murmur2_or_cityhashImLm64EE13__hash_len_16B8ne180100Emm, symObjAddr: 0x10F64, symBinAddr: 0x100013B18, symSize: 0x80 }
  - { offset: 0x2E6D0, size: 0x8, addend: 0x0, symName: __ZNSt3__121__murmur2_or_cityhashImLm64EE29__weak_hash_len_32_with_seedsB8ne180100EPKcmm, symObjAddr: 0x10FE4, symBinAddr: 0x100013B98, symSize: 0x88 }
  - { offset: 0x2E70F, size: 0x8, addend: 0x0, symName: __ZNSt3__121__murmur2_or_cityhashImLm64EE8__rotateB8ne180100Emi, symObjAddr: 0x1106C, symBinAddr: 0x100013C20, symSize: 0x64 }
  - { offset: 0x2E740, size: 0x8, addend: 0x0, symName: __ZNSt3__14pairImmEaSB8ne180100EOS1_, symObjAddr: 0x110D0, symBinAddr: 0x100013C84, symSize: 0x30 }
  - { offset: 0x2E775, size: 0x8, addend: 0x0, symName: __ZNSt3__121__murmur2_or_cityhashImLm64EE11__shift_mixB8ne180100Em, symObjAddr: 0x1113C, symBinAddr: 0x100013CF0, symSize: 0x1C }
  - { offset: 0x2E798, size: 0x8, addend: 0x0, symName: __ZNSt3__121__murmur2_or_cityhashImLm64EE22__rotate_by_at_least_1B8ne180100Emi, symObjAddr: 0x11158, symBinAddr: 0x100013D0C, symSize: 0x38 }
  - { offset: 0x2E7C9, size: 0x8, addend: 0x0, symName: __ZNSt3__121__murmur2_or_cityhashImLm64EE29__weak_hash_len_32_with_seedsB8ne180100Emmmmmm, symObjAddr: 0x111B0, symBinAddr: 0x100013D64, symSize: 0xD8 }
  - { offset: 0x2E846, size: 0x8, addend: 0x0, symName: __ZNSt3__14pairImmEC1B8ne180100ImmLi0EEEOT_OT0_, symObjAddr: 0x11288, symBinAddr: 0x100013E3C, symSize: 0x3C }
  - { offset: 0x2E8A4, size: 0x8, addend: 0x0, symName: __ZNSt3__14pairImmEC2B8ne180100ImmLi0EEEOT_OT0_, symObjAddr: 0x112C4, symBinAddr: 0x100013E78, symSize: 0x34 }
  - { offset: 0x2E902, size: 0x8, addend: 0x0, symName: __ZNKSt3__117__compressed_pairIfNS_21__unordered_map_equalINS_12basic_stringIcNS_11char_traitsIcEENS_9allocatorIcEEEENS_17__hash_value_typeIS7_NS_10shared_ptrI3VarEEEENS_8equal_toIS7_EENS_4hashIS7_EELb1EEEE6secondB8ne180100Ev, symObjAddr: 0x112F8, symBinAddr: 0x100013EAC, symSize: 0x24 }
  - { offset: 0x2E928, size: 0x8, addend: 0x0, symName: __ZNKSt3__122__compressed_pair_elemINS_21__unordered_map_equalINS_12basic_stringIcNS_11char_traitsIcEENS_9allocatorIcEEEENS_17__hash_value_typeIS7_NS_10shared_ptrI3VarEEEENS_8equal_toIS7_EENS_4hashIS7_EELb1EEELi1ELb1EE5__getB8ne180100Ev, symObjAddr: 0x1131C, symBinAddr: 0x100013ED0, symSize: 0x14 }
  - { offset: 0x2E94E, size: 0x8, addend: 0x0, symName: __ZNKSt3__18equal_toINS_12basic_stringIcNS_11char_traitsIcEENS_9allocatorIcEEEEEclB8ne180100ERKS6_S9_, symObjAddr: 0x11330, symBinAddr: 0x100013EE4, symSize: 0x34 }
  - { offset: 0x2E992, size: 0x8, addend: 0x0, symName: __ZNKSt3__117__hash_value_typeINS_12basic_stringIcNS_11char_traitsIcEENS_9allocatorIcEEEENS_10shared_ptrI3VarEEE11__get_valueB8ne180100Ev, symObjAddr: 0x11364, symBinAddr: 0x100013F18, symSize: 0x24 }
  - { offset: 0x2E9B8, size: 0x8, addend: 0x0, symName: __ZNSt3__121__hash_const_iteratorIPNS_11__hash_nodeINS_17__hash_value_typeINS_12basic_stringIcNS_11char_traitsIcEENS_9allocatorIcEEEENS_10shared_ptrI3VarEEEEPvEEEC2B8ne180100EPNS_16__hash_node_baseISF_EE, symObjAddr: 0x11508, symBinAddr: 0x1000140BC, symSize: 0x20 }
  - { offset: 0x2E9F1, size: 0x8, addend: 0x0, symName: __ZNSt3__125__hash_map_const_iteratorINS_21__hash_const_iteratorIPNS_11__hash_nodeINS_17__hash_value_typeINS_12basic_stringIcNS_11char_traitsIcEENS_9allocatorIcEEEENS_10shared_ptrI3VarEEEEPvEEEEEC2B8ne180100ESH_, symObjAddr: 0x11528, symBinAddr: 0x1000140DC, symSize: 0x20 }
  - { offset: 0x2EA2A, size: 0x8, addend: 0x0, symName: __ZNSt3__19allocatorI3VarEC1B8ne180100Ev, symObjAddr: 0x115E0, symBinAddr: 0x100014194, symSize: 0x2C }
  - { offset: 0x2EA86, size: 0x8, addend: 0x0, symName: __ZNSt3__118__allocation_guardINS_9allocatorINS_20__shared_ptr_emplaceI3VarNS1_IS3_EEEEEEEC1B8ne180100IS4_EET_m, symObjAddr: 0x1160C, symBinAddr: 0x1000141C0, symSize: 0x34 }
  - { offset: 0x2EAD5, size: 0x8, addend: 0x0, symName: __ZNKSt3__118__allocation_guardINS_9allocatorINS_20__shared_ptr_emplaceI3VarNS1_IS3_EEEEEEE5__getB8ne180100Ev, symObjAddr: 0x11640, symBinAddr: 0x1000141F4, symSize: 0x18 }
  - { offset: 0x2EB01, size: 0x8, addend: 0x0, symName: __ZNSt3__120__shared_ptr_emplaceI3VarNS_9allocatorIS1_EEEC1B8ne180100IJS1_ES3_Li0EEES3_DpOT_, symObjAddr: 0x11658, symBinAddr: 0x10001420C, symSize: 0x34 }
  - { offset: 0x2EB63, size: 0x8, addend: 0x0, symName: __ZNSt3__118__allocation_guardINS_9allocatorINS_20__shared_ptr_emplaceI3VarNS1_IS3_EEEEEEE13__release_ptrB8ne180100Ev, symObjAddr: 0x1168C, symBinAddr: 0x100014240, symSize: 0x24 }
  - { offset: 0x2EB97, size: 0x8, addend: 0x0, symName: __ZNSt3__110shared_ptrI3VarE27__create_with_control_blockB8ne180100IS1_NS_20__shared_ptr_emplaceIS1_NS_9allocatorIS1_EEEEEES2_PT_PT0_, symObjAddr: 0x116B0, symBinAddr: 0x100014264, symSize: 0xA4 }
  - { offset: 0x2EBEC, size: 0x8, addend: 0x0, symName: __ZNSt3__120__shared_ptr_emplaceI3VarNS_9allocatorIS1_EEE10__get_elemB8ne180100Ev, symObjAddr: 0x11754, symBinAddr: 0x100014308, symSize: 0x28 }
  - { offset: 0x2EC12, size: 0x8, addend: 0x0, symName: __ZNSt3__118__allocation_guardINS_9allocatorINS_20__shared_ptr_emplaceI3VarNS1_IS3_EEEEEEED1B8ne180100Ev, symObjAddr: 0x1177C, symBinAddr: 0x100014330, symSize: 0x2C }
  - { offset: 0x2EC3C, size: 0x8, addend: 0x0, symName: __ZNSt3__118__allocation_guardINS_9allocatorINS_20__shared_ptr_emplaceI3VarNS1_IS3_EEEEEEEC2B8ne180100IS4_EET_m, symObjAddr: 0x117A8, symBinAddr: 0x10001435C, symSize: 0x50 }
  - { offset: 0x2EC8B, size: 0x8, addend: 0x0, symName: __ZNSt3__19allocatorINS_20__shared_ptr_emplaceI3VarNS0_IS2_EEEEEC1B8ne180100IS2_EERKNS0_IT_EE, symObjAddr: 0x117F8, symBinAddr: 0x1000143AC, symSize: 0x34 }
  - { offset: 0x2ECC8, size: 0x8, addend: 0x0, symName: __ZNSt3__116allocator_traitsINS_9allocatorINS_20__shared_ptr_emplaceI3VarNS1_IS3_EEEEEEE8allocateB8ne180100ERS6_m, symObjAddr: 0x1182C, symBinAddr: 0x1000143E0, symSize: 0x2C }
  - { offset: 0x2ECFB, size: 0x8, addend: 0x0, symName: __ZNSt3__19allocatorINS_20__shared_ptr_emplaceI3VarNS0_IS2_EEEEEC2B8ne180100IS2_EERKNS0_IT_EE, symObjAddr: 0x11858, symBinAddr: 0x10001440C, symSize: 0x30 }
  - { offset: 0x2ED38, size: 0x8, addend: 0x0, symName: __ZNSt3__116__non_trivial_ifILb1ENS_9allocatorINS_20__shared_ptr_emplaceI3VarNS1_IS3_EEEEEEEC2B8ne180100Ev, symObjAddr: 0x11888, symBinAddr: 0x10001443C, symSize: 0x14 }
  - { offset: 0x2ED62, size: 0x8, addend: 0x0, symName: __ZNSt3__19allocatorINS_20__shared_ptr_emplaceI3VarNS0_IS2_EEEEE8allocateB8ne180100Em, symObjAddr: 0x1189C, symBinAddr: 0x100014450, symSize: 0x5C }
  - { offset: 0x2EDA2, size: 0x8, addend: 0x0, symName: __ZNSt3__116allocator_traitsINS_9allocatorINS_20__shared_ptr_emplaceI3VarNS1_IS3_EEEEEEE8max_sizeB8ne180100IS6_vvEEmRKS6_, symObjAddr: 0x118F8, symBinAddr: 0x1000144AC, symSize: 0x28 }
  - { offset: 0x2EDCE, size: 0x8, addend: 0x0, symName: __ZNSt3__120__shared_ptr_emplaceI3VarNS_9allocatorIS1_EEEC2B8ne180100IJS1_ES3_Li0EEES3_DpOT_, symObjAddr: 0x11920, symBinAddr: 0x1000144D4, symSize: 0xBC }
  - { offset: 0x2EE51, size: 0x8, addend: 0x0, symName: __ZNSt3__120__shared_ptr_emplaceI3VarNS_9allocatorIS1_EEE8_StorageC1B8ne180100EOS3_, symObjAddr: 0x119DC, symBinAddr: 0x100014590, symSize: 0x34 }
  - { offset: 0x2EE8A, size: 0x8, addend: 0x0, symName: __ZNSt3__120__shared_ptr_emplaceI3VarNS_9allocatorIS1_EEE11__get_allocB8ne180100Ev, symObjAddr: 0x11A10, symBinAddr: 0x1000145C4, symSize: 0x28 }
  - { offset: 0x2EEB6, size: 0x8, addend: 0x0, symName: __ZNSt3__116allocator_traitsINS_9allocatorI3VarEEE9constructB8ne180100IS2_JS2_EvvEEvRS3_PT_DpOT0_, symObjAddr: 0x11A38, symBinAddr: 0x1000145EC, symSize: 0x30 }
  - { offset: 0x2EF0B, size: 0x8, addend: 0x0, symName: __ZNSt3__120__shared_ptr_emplaceI3VarNS_9allocatorIS1_EEE8_StorageD1B8ne180100Ev, symObjAddr: 0x11A68, symBinAddr: 0x10001461C, symSize: 0x2C }
  - { offset: 0x2EF35, size: 0x8, addend: 0x0, symName: __ZNSt3__120__shared_ptr_emplaceI3VarNS_9allocatorIS1_EEED1Ev, symObjAddr: 0x11A94, symBinAddr: 0x100014648, symSize: 0x2C }
  - { offset: 0x2EF61, size: 0x8, addend: 0x0, symName: __ZNSt3__120__shared_ptr_emplaceI3VarNS_9allocatorIS1_EEED0Ev, symObjAddr: 0x11AC0, symBinAddr: 0x100014674, symSize: 0x30 }
  - { offset: 0x2EF8D, size: 0x8, addend: 0x0, symName: __ZNSt3__120__shared_ptr_emplaceI3VarNS_9allocatorIS1_EEE16__on_zero_sharedEv, symObjAddr: 0x11AF0, symBinAddr: 0x1000146A4, symSize: 0x24 }
  - { offset: 0x2EFB3, size: 0x8, addend: 0x0, symName: __ZNSt3__120__shared_ptr_emplaceI3VarNS_9allocatorIS1_EEE21__on_zero_shared_weakEv, symObjAddr: 0x11B14, symBinAddr: 0x1000146C8, symSize: 0x5C }
  - { offset: 0x2EFF4, size: 0x8, addend: 0x0, symName: __ZNSt3__120__shared_ptr_emplaceI3VarNS_9allocatorIS1_EEE8_StorageC2B8ne180100EOS3_, symObjAddr: 0x11B70, symBinAddr: 0x100014724, symSize: 0x30 }
  - { offset: 0x2F02D, size: 0x8, addend: 0x0, symName: __ZNSt3__120__shared_ptr_emplaceI3VarNS_9allocatorIS1_EEE8_Storage11__get_allocB8ne180100Ev, symObjAddr: 0x11BA0, symBinAddr: 0x100014754, symSize: 0x3C }
  - { offset: 0x2F080, size: 0x8, addend: 0x0, symName: __ZNSt3__117__compressed_pairINS_9allocatorI3VarEES2_E16__get_first_baseB8ne180100EPS4_, symObjAddr: 0x11BDC, symBinAddr: 0x100014790, symSize: 0x14 }
  - { offset: 0x2F0A3, size: 0x8, addend: 0x0, symName: __ZN3VarC1EOS_, symObjAddr: 0x11C50, symBinAddr: 0x100014804, symSize: 0x34 }
  - { offset: 0x2F0D8, size: 0x8, addend: 0x0, symName: __ZN3VarC2EOS_, symObjAddr: 0x11C84, symBinAddr: 0x100014838, symSize: 0x54 }
  - { offset: 0x2F10D, size: 0x8, addend: 0x0, symName: __ZNSt3__120__shared_ptr_emplaceI3VarNS_9allocatorIS1_EEE8_StorageD2B8ne180100Ev, symObjAddr: 0x11CD8, symBinAddr: 0x10001488C, symSize: 0x2C }
  - { offset: 0x2F137, size: 0x8, addend: 0x0, symName: __ZNSt3__120__shared_ptr_emplaceI3VarNS_9allocatorIS1_EEED2Ev, symObjAddr: 0x11D04, symBinAddr: 0x1000148B8, symSize: 0x48 }
  - { offset: 0x2F163, size: 0x8, addend: 0x0, symName: __ZNSt3__120__shared_ptr_emplaceI3VarNS_9allocatorIS1_EEE21__on_zero_shared_implB8ne180100IS3_Li0EEEvv, symObjAddr: 0x11D4C, symBinAddr: 0x100014900, symSize: 0x44 }
  - { offset: 0x2F1B3, size: 0x8, addend: 0x0, symName: __ZNSt3__116allocator_traitsINS_9allocatorI3VarEEE7destroyB8ne180100IS2_vvEEvRS3_PT_, symObjAddr: 0x11D90, symBinAddr: 0x100014944, symSize: 0x28 }
  - { offset: 0x2F1EE, size: 0x8, addend: 0x0, symName: __ZNSt3__116allocator_traitsINS_9allocatorINS_20__shared_ptr_emplaceI3VarNS1_IS3_EEEEEEE10deallocateB8ne180100ERS6_PS5_m, symObjAddr: 0x11DDC, symBinAddr: 0x100014990, symSize: 0x34 }
  - { offset: 0x2F236, size: 0x8, addend: 0x0, symName: __ZNSt3__114pointer_traitsIPNS_20__shared_ptr_emplaceI3VarNS_9allocatorIS2_EEEEE10pointer_toB8ne180100ERS5_, symObjAddr: 0x11E10, symBinAddr: 0x1000149C4, symSize: 0x14 }
  - { offset: 0x2F259, size: 0x8, addend: 0x0, symName: __ZNSt3__19allocatorINS_20__shared_ptr_emplaceI3VarNS0_IS2_EEEEE10deallocateB8ne180100EPS4_m, symObjAddr: 0x11E24, symBinAddr: 0x1000149D8, symSize: 0x44 }
  - { offset: 0x2F29B, size: 0x8, addend: 0x0, symName: __ZNSt3__110shared_ptrI3VarEC1B8ne180100Ev, symObjAddr: 0x11E68, symBinAddr: 0x100014A1C, symSize: 0x2C }
  - { offset: 0x2F2C5, size: 0x8, addend: 0x0, symName: __ZNSt3__110shared_ptrI3VarE18__enable_weak_thisB8ne180100Ez, symObjAddr: 0x11E94, symBinAddr: 0x100014A48, symSize: 0x10 }
  - { offset: 0x2F2EC, size: 0x8, addend: 0x0, symName: __ZNSt3__110shared_ptrI3VarEC2B8ne180100Ev, symObjAddr: 0x11EA4, symBinAddr: 0x100014A58, symSize: 0x1C }
  - { offset: 0x2F316, size: 0x8, addend: 0x0, symName: __ZNSt3__120__shared_ptr_emplaceI3VarNS_9allocatorIS1_EEE8_Storage10__get_elemB8ne180100Ev, symObjAddr: 0x11EC0, symBinAddr: 0x100014A74, symSize: 0x3C }
  - { offset: 0x2F369, size: 0x8, addend: 0x0, symName: __ZNSt3__117__compressed_pairINS_9allocatorI3VarEES2_E17__get_second_baseB8ne180100EPS4_, symObjAddr: 0x11EFC, symBinAddr: 0x100014AB0, symSize: 0x14 }
  - { offset: 0x2F38C, size: 0x8, addend: 0x0, symName: __ZNSt3__118__allocation_guardINS_9allocatorINS_20__shared_ptr_emplaceI3VarNS1_IS3_EEEEEEED2B8ne180100Ev, symObjAddr: 0x11F10, symBinAddr: 0x100014AC4, symSize: 0x2C }
  - { offset: 0x2F3B6, size: 0x8, addend: 0x0, symName: __ZNSt3__118__allocation_guardINS_9allocatorINS_20__shared_ptr_emplaceI3VarNS1_IS3_EEEEEEE9__destroyB8ne180100Ev, symObjAddr: 0x11F3C, symBinAddr: 0x100014AF0, symSize: 0x4C }
  - { offset: 0x2F3DC, size: 0x8, addend: 0x0, symName: __ZNSt3__19allocatorI3VarEC2B8ne180100Ev, symObjAddr: 0x11F88, symBinAddr: 0x100014B3C, symSize: 0x2C }
  - { offset: 0x2F406, size: 0x8, addend: 0x0, symName: __ZNSt3__116__non_trivial_ifILb1ENS_9allocatorI3VarEEEC2B8ne180100Ev, symObjAddr: 0x11FB4, symBinAddr: 0x100014B68, symSize: 0x14 }
  - { offset: 0x2F447, size: 0x8, addend: 0x0, symName: __ZNSt3__112__hash_tableINS_17__hash_value_typeINS_12basic_stringIcNS_11char_traitsIcEENS_9allocatorIcEEEENS_10shared_ptrI3VarEEEENS_22__unordered_map_hasherIS7_SB_NS_4hashIS7_EENS_8equal_toIS7_EELb1EEENS_21__unordered_map_equalIS7_SB_SG_SE_Lb1EEENS5_ISB_EEE25__emplace_unique_key_argsIS7_JRKNS_21piecewise_construct_tENS_5tupleIJRKS7_EEENSQ_IJEEEEEENS_4pairINS_15__hash_iteratorIPNS_11__hash_nodeISB_PvEEEEbEERKT_DpOT0_, symObjAddr: 0x11FC8, symBinAddr: 0x100014B7C, symSize: 0x4B8 }
  - { offset: 0x2F551, size: 0x8, addend: 0x0, symName: __ZNKSt3__115__hash_iteratorIPNS_11__hash_nodeINS_17__hash_value_typeINS_12basic_stringIcNS_11char_traitsIcEENS_9allocatorIcEEEENS_10shared_ptrI3VarEEEEPvEEEptB8ne180100Ev, symObjAddr: 0x124B0, symBinAddr: 0x100015064, symSize: 0x30 }
  - { offset: 0x2F577, size: 0x8, addend: 0x0, symName: __ZNSt3__112__hash_tableINS_17__hash_value_typeINS_12basic_stringIcNS_11char_traitsIcEENS_9allocatorIcEEEENS_10shared_ptrI3VarEEEENS_22__unordered_map_hasherIS7_SB_NS_4hashIS7_EENS_8equal_toIS7_EELb1EEENS_21__unordered_map_equalIS7_SB_SG_SE_Lb1EEENS5_ISB_EEE13hash_functionB8ne180100Ev, symObjAddr: 0x124E0, symBinAddr: 0x100015094, symSize: 0x28 }
  - { offset: 0x2F59D, size: 0x8, addend: 0x0, symName: __ZNSt3__112__hash_tableINS_17__hash_value_typeINS_12basic_stringIcNS_11char_traitsIcEENS_9allocatorIcEEEENS_10shared_ptrI3VarEEEENS_22__unordered_map_hasherIS7_SB_NS_4hashIS7_EENS_8equal_toIS7_EELb1EEENS_21__unordered_map_equalIS7_SB_SG_SE_Lb1EEENS5_ISB_EEE6key_eqB8ne180100Ev, symObjAddr: 0x12508, symBinAddr: 0x1000150BC, symSize: 0x28 }
  - { offset: 0x2F5C3, size: 0x8, addend: 0x0, symName: __ZNSt3__112__hash_tableINS_17__hash_value_typeINS_12basic_stringIcNS_11char_traitsIcEENS_9allocatorIcEEEENS_10shared_ptrI3VarEEEENS_22__unordered_map_hasherIS7_SB_NS_4hashIS7_EENS_8equal_toIS7_EELb1EEENS_21__unordered_map_equalIS7_SB_SG_SE_Lb1EEENS5_ISB_EEE21__construct_node_hashIRKNS_21piecewise_construct_tEJNS_5tupleIJRKS7_EEENSQ_IJEEEEEENS_10unique_ptrINS_11__hash_nodeISB_PvEENS_22__hash_node_destructorINS5_ISY_EEEEEEmOT_DpOT0_, symObjAddr: 0x12530, symBinAddr: 0x1000150E4, symSize: 0x14C }
  - { offset: 0x2F65F, size: 0x8, addend: 0x0, symName: __ZNSt3__112__hash_tableINS_17__hash_value_typeINS_12basic_stringIcNS_11char_traitsIcEENS_9allocatorIcEEEENS_10shared_ptrI3VarEEEENS_22__unordered_map_hasherIS7_SB_NS_4hashIS7_EENS_8equal_toIS7_EELb1EEENS_21__unordered_map_equalIS7_SB_SG_SE_Lb1EEENS5_ISB_EEE15max_load_factorB8ne180100Ev, symObjAddr: 0x1267C, symBinAddr: 0x100015230, symSize: 0x28 }
  - { offset: 0x2F685, size: 0x8, addend: 0x0, symName: __ZNSt3__112__hash_tableINS_17__hash_value_typeINS_12basic_stringIcNS_11char_traitsIcEENS_9allocatorIcEEEENS_10shared_ptrI3VarEEEENS_22__unordered_map_hasherIS7_SB_NS_4hashIS7_EENS_8equal_toIS7_EELb1EEENS_21__unordered_map_equalIS7_SB_SG_SE_Lb1EEENS5_ISB_EEE15__rehash_uniqueB8ne180100Em, symObjAddr: 0x126A4, symBinAddr: 0x100015258, symSize: 0x2C }
  - { offset: 0x2F6BA, size: 0x8, addend: 0x0, symName: __ZNKSt3__110unique_ptrINS_11__hash_nodeINS_17__hash_value_typeINS_12basic_stringIcNS_11char_traitsIcEENS_9allocatorIcEEEENS_10shared_ptrI3VarEEEEPvEENS_22__hash_node_destructorINS6_ISE_EEEEEptB8ne180100Ev, symObjAddr: 0x12738, symBinAddr: 0x1000152EC, symSize: 0x28 }
  - { offset: 0x2F6E0, size: 0x8, addend: 0x0, symName: __ZNKSt3__110unique_ptrINS_11__hash_nodeINS_17__hash_value_typeINS_12basic_stringIcNS_11char_traitsIcEENS_9allocatorIcEEEENS_10shared_ptrI3VarEEEEPvEENS_22__hash_node_destructorINS6_ISE_EEEEE3getB8ne180100Ev, symObjAddr: 0x12760, symBinAddr: 0x100015314, symSize: 0x28 }
  - { offset: 0x2F706, size: 0x8, addend: 0x0, symName: __ZNSt3__110unique_ptrINS_11__hash_nodeINS_17__hash_value_typeINS_12basic_stringIcNS_11char_traitsIcEENS_9allocatorIcEEEENS_10shared_ptrI3VarEEEEPvEENS_22__hash_node_destructorINS6_ISE_EEEEE7releaseB8ne180100Ev, symObjAddr: 0x12788, symBinAddr: 0x10001533C, symSize: 0x44 }
  - { offset: 0x2F73B, size: 0x8, addend: 0x0, symName: __ZNSt3__110unique_ptrINS_11__hash_nodeINS_17__hash_value_typeINS_12basic_stringIcNS_11char_traitsIcEENS_9allocatorIcEEEENS_10shared_ptrI3VarEEEEPvEENS_22__hash_node_destructorINS6_ISE_EEEEED1B8ne180100Ev, symObjAddr: 0x127CC, symBinAddr: 0x100015380, symSize: 0x2C }
  - { offset: 0x2F765, size: 0x8, addend: 0x0, symName: __ZNSt3__115__hash_iteratorIPNS_11__hash_nodeINS_17__hash_value_typeINS_12basic_stringIcNS_11char_traitsIcEENS_9allocatorIcEEEENS_10shared_ptrI3VarEEEEPvEEEC1B8ne180100EPNS_16__hash_node_baseISF_EE, symObjAddr: 0x127F8, symBinAddr: 0x1000153AC, symSize: 0x34 }
  - { offset: 0x2F7A4, size: 0x8, addend: 0x0, symName: __ZNSt3__14pairINS_15__hash_iteratorIPNS_11__hash_nodeINS_17__hash_value_typeINS_12basic_stringIcNS_11char_traitsIcEENS_9allocatorIcEEEENS_10shared_ptrI3VarEEEEPvEEEEbEC1B8ne180100ISH_RbLi0EEEOT_OT0_, symObjAddr: 0x1282C, symBinAddr: 0x1000153E0, symSize: 0x3C }
  - { offset: 0x2F802, size: 0x8, addend: 0x0, symName: __ZNSt3__117__compressed_pairImNS_22__unordered_map_hasherINS_12basic_stringIcNS_11char_traitsIcEENS_9allocatorIcEEEENS_17__hash_value_typeIS7_NS_10shared_ptrI3VarEEEENS_4hashIS7_EENS_8equal_toIS7_EELb1EEEE6secondB8ne180100Ev, symObjAddr: 0x12868, symBinAddr: 0x10001541C, symSize: 0x24 }
  - { offset: 0x2F828, size: 0x8, addend: 0x0, symName: __ZNSt3__122__compressed_pair_elemINS_22__unordered_map_hasherINS_12basic_stringIcNS_11char_traitsIcEENS_9allocatorIcEEEENS_17__hash_value_typeIS7_NS_10shared_ptrI3VarEEEENS_4hashIS7_EENS_8equal_toIS7_EELb1EEELi1ELb1EE5__getB8ne180100Ev, symObjAddr: 0x1288C, symBinAddr: 0x100015440, symSize: 0x14 }
  - { offset: 0x2F84E, size: 0x8, addend: 0x0, symName: __ZNSt3__117__compressed_pairIfNS_21__unordered_map_equalINS_12basic_stringIcNS_11char_traitsIcEENS_9allocatorIcEEEENS_17__hash_value_typeIS7_NS_10shared_ptrI3VarEEEENS_8equal_toIS7_EENS_4hashIS7_EELb1EEEE6secondB8ne180100Ev, symObjAddr: 0x128A0, symBinAddr: 0x100015454, symSize: 0x24 }
  - { offset: 0x2F874, size: 0x8, addend: 0x0, symName: __ZNSt3__122__compressed_pair_elemINS_21__unordered_map_equalINS_12basic_stringIcNS_11char_traitsIcEENS_9allocatorIcEEEENS_17__hash_value_typeIS7_NS_10shared_ptrI3VarEEEENS_8equal_toIS7_EENS_4hashIS7_EELb1EEELi1ELb1EE5__getB8ne180100Ev, symObjAddr: 0x128C4, symBinAddr: 0x100015478, symSize: 0x14 }
  - { offset: 0x2F89A, size: 0x8, addend: 0x0, symName: __ZNSt3__116allocator_traitsINS_9allocatorINS_11__hash_nodeINS_17__hash_value_typeINS_12basic_stringIcNS_11char_traitsIcEENS1_IcEEEENS_10shared_ptrI3VarEEEEPvEEEEE8allocateB8ne180100ERSF_m, symObjAddr: 0x128D8, symBinAddr: 0x10001548C, symSize: 0x2C }
  - { offset: 0x2F8CD, size: 0x8, addend: 0x0, symName: __ZNSt3__122__hash_node_destructorINS_9allocatorINS_11__hash_nodeINS_17__hash_value_typeINS_12basic_stringIcNS_11char_traitsIcEENS1_IcEEEENS_10shared_ptrI3VarEEEEPvEEEEEC1B8ne180100ERSF_b, symObjAddr: 0x12904, symBinAddr: 0x1000154B8, symSize: 0x48 }
  - { offset: 0x2F91B, size: 0x8, addend: 0x0, symName: __ZNSt3__110unique_ptrINS_11__hash_nodeINS_17__hash_value_typeINS_12basic_stringIcNS_11char_traitsIcEENS_9allocatorIcEEEENS_10shared_ptrI3VarEEEEPvEENS_22__hash_node_destructorINS6_ISE_EEEEEC1B8ne180100ILb1EvEEPSE_NS_16__dependent_typeINS_27__unique_ptr_deleter_sfinaeISH_EEXT_EE20__good_rval_ref_typeE, symObjAddr: 0x1294C, symBinAddr: 0x100015500, symSize: 0x3C }
  - { offset: 0x2F96C, size: 0x8, addend: 0x0, symName: __ZNKSt3__110unique_ptrINS_11__hash_nodeINS_17__hash_value_typeINS_12basic_stringIcNS_11char_traitsIcEENS_9allocatorIcEEEENS_10shared_ptrI3VarEEEEPvEENS_22__hash_node_destructorINS6_ISE_EEEEEdeB8ne180100Ev, symObjAddr: 0x129BC, symBinAddr: 0x100015570, symSize: 0x28 }
  - { offset: 0x2F992, size: 0x8, addend: 0x0, symName: __ZNSt3__116allocator_traitsINS_9allocatorINS_11__hash_nodeINS_17__hash_value_typeINS_12basic_stringIcNS_11char_traitsIcEENS1_IcEEEENS_10shared_ptrI3VarEEEEPvEEEEE9constructB8ne180100INS_4pairIKS8_SB_EEJRKNS_21piecewise_construct_tENS_5tupleIJRSJ_EEENSO_IJEEEEvvEEvRSF_PT_DpOT0_, symObjAddr: 0x129E4, symBinAddr: 0x100015598, symSize: 0x40 }
  - { offset: 0x2FA0F, size: 0x8, addend: 0x0, symName: __ZNSt3__110unique_ptrINS_11__hash_nodeINS_17__hash_value_typeINS_12basic_stringIcNS_11char_traitsIcEENS_9allocatorIcEEEENS_10shared_ptrI3VarEEEEPvEENS_22__hash_node_destructorINS6_ISE_EEEEE11get_deleterB8ne180100Ev, symObjAddr: 0x12A24, symBinAddr: 0x1000155D8, symSize: 0x24 }
  - { offset: 0x2FA35, size: 0x8, addend: 0x0, symName: __ZNSt3__19allocatorINS_11__hash_nodeINS_17__hash_value_typeINS_12basic_stringIcNS_11char_traitsIcEENS0_IcEEEENS_10shared_ptrI3VarEEEEPvEEE8allocateB8ne180100Em, symObjAddr: 0x12A48, symBinAddr: 0x1000155FC, symSize: 0x5C }
  - { offset: 0x2FA75, size: 0x8, addend: 0x0, symName: __ZNSt3__116allocator_traitsINS_9allocatorINS_11__hash_nodeINS_17__hash_value_typeINS_12basic_stringIcNS_11char_traitsIcEENS1_IcEEEENS_10shared_ptrI3VarEEEEPvEEEEE8max_sizeB8ne180100ISF_vvEEmRKSF_, symObjAddr: 0x12AA4, symBinAddr: 0x100015658, symSize: 0x28 }
  - { offset: 0x2FAA1, size: 0x8, addend: 0x0, symName: __ZNSt3__122__hash_node_destructorINS_9allocatorINS_11__hash_nodeINS_17__hash_value_typeINS_12basic_stringIcNS_11char_traitsIcEENS1_IcEEEENS_10shared_ptrI3VarEEEEPvEEEEEC2B8ne180100ERSF_b, symObjAddr: 0x12ACC, symBinAddr: 0x100015680, symSize: 0x38 }
  - { offset: 0x2FAE9, size: 0x8, addend: 0x0, symName: __ZNSt3__110unique_ptrINS_11__hash_nodeINS_17__hash_value_typeINS_12basic_stringIcNS_11char_traitsIcEENS_9allocatorIcEEEENS_10shared_ptrI3VarEEEEPvEENS_22__hash_node_destructorINS6_ISE_EEEEEC2B8ne180100ILb1EvEEPSE_NS_16__dependent_typeINS_27__unique_ptr_deleter_sfinaeISH_EEXT_EE20__good_rval_ref_typeE, symObjAddr: 0x12B04, symBinAddr: 0x1000156B8, symSize: 0x48 }
  - { offset: 0x2FB3A, size: 0x8, addend: 0x0, symName: __ZNSt3__117__compressed_pairIPNS_11__hash_nodeINS_17__hash_value_typeINS_12basic_stringIcNS_11char_traitsIcEENS_9allocatorIcEEEENS_10shared_ptrI3VarEEEEPvEENS_22__hash_node_destructorINS6_ISE_EEEEEC1B8ne180100IRSF_SI_EEOT_OT0_, symObjAddr: 0x12B4C, symBinAddr: 0x100015700, symSize: 0x3C }
  - { offset: 0x2FB92, size: 0x8, addend: 0x0, symName: __ZNSt3__117__compressed_pairIPNS_11__hash_nodeINS_17__hash_value_typeINS_12basic_stringIcNS_11char_traitsIcEENS_9allocatorIcEEEENS_10shared_ptrI3VarEEEEPvEENS_22__hash_node_destructorINS6_ISE_EEEEEC2B8ne180100IRSF_SI_EEOT_OT0_, symObjAddr: 0x12B88, symBinAddr: 0x10001573C, symSize: 0x48 }
  - { offset: 0x2FBEA, size: 0x8, addend: 0x0, symName: __ZNSt3__122__compressed_pair_elemIPNS_11__hash_nodeINS_17__hash_value_typeINS_12basic_stringIcNS_11char_traitsIcEENS_9allocatorIcEEEENS_10shared_ptrI3VarEEEEPvEELi0ELb0EEC2B8ne180100IRSF_vEEOT_, symObjAddr: 0x12BD0, symBinAddr: 0x100015784, symSize: 0x24 }
  - { offset: 0x2FC2C, size: 0x8, addend: 0x0, symName: __ZNSt3__122__compressed_pair_elemINS_22__hash_node_destructorINS_9allocatorINS_11__hash_nodeINS_17__hash_value_typeINS_12basic_stringIcNS_11char_traitsIcEENS2_IcEEEENS_10shared_ptrI3VarEEEEPvEEEEEELi1ELb0EEC2B8ne180100ISH_vEEOT_, symObjAddr: 0x12BF4, symBinAddr: 0x1000157A8, symSize: 0x24 }
  - { offset: 0x2FC6E, size: 0x8, addend: 0x0, symName: __ZNSt3__111__hash_nodeINS_17__hash_value_typeINS_12basic_stringIcNS_11char_traitsIcEENS_9allocatorIcEEEENS_10shared_ptrI3VarEEEEPvEC1B8ne180100EPNS_16__hash_node_baseIPSD_EEm, symObjAddr: 0x12C58, symBinAddr: 0x10001580C, symSize: 0x3C }
  - { offset: 0x2FCB4, size: 0x8, addend: 0x0, symName: __ZNSt3__111__hash_nodeINS_17__hash_value_typeINS_12basic_stringIcNS_11char_traitsIcEENS_9allocatorIcEEEENS_10shared_ptrI3VarEEEEPvEC2B8ne180100EPNS_16__hash_node_baseIPSD_EEm, symObjAddr: 0x12C94, symBinAddr: 0x100015848, symSize: 0x40 }
  - { offset: 0x2FCFA, size: 0x8, addend: 0x0, symName: __ZNSt3__116__hash_node_baseIPNS_11__hash_nodeINS_17__hash_value_typeINS_12basic_stringIcNS_11char_traitsIcEENS_9allocatorIcEEEENS_10shared_ptrI3VarEEEEPvEEEC2B8ne180100EPSG_, symObjAddr: 0x12CD4, symBinAddr: 0x100015888, symSize: 0x20 }
  - { offset: 0x2FD32, size: 0x8, addend: 0x0, symName: __ZNKSt3__117__compressed_pairIPNS_11__hash_nodeINS_17__hash_value_typeINS_12basic_stringIcNS_11char_traitsIcEENS_9allocatorIcEEEENS_10shared_ptrI3VarEEEEPvEENS_22__hash_node_destructorINS6_ISE_EEEEE5firstB8ne180100Ev, symObjAddr: 0x12CF4, symBinAddr: 0x1000158A8, symSize: 0x24 }
  - { offset: 0x2FD58, size: 0x8, addend: 0x0, symName: __ZNKSt3__122__compressed_pair_elemIPNS_11__hash_nodeINS_17__hash_value_typeINS_12basic_stringIcNS_11char_traitsIcEENS_9allocatorIcEEEENS_10shared_ptrI3VarEEEEPvEELi0ELb0EE5__getB8ne180100Ev, symObjAddr: 0x12D18, symBinAddr: 0x1000158CC, symSize: 0x14 }
  - { offset: 0x2FD7E, size: 0x8, addend: 0x0, symName: __ZNSt3__14pairIKNS_12basic_stringIcNS_11char_traitsIcEENS_9allocatorIcEEEENS_10shared_ptrI3VarEEEC1B8ne180100IJRS7_EJEEENS_21piecewise_construct_tENS_5tupleIJDpT_EEENSF_IJDpT0_EEE, symObjAddr: 0x12DB0, symBinAddr: 0x100015964, symSize: 0x3C }
  - { offset: 0x2FDE5, size: 0x8, addend: 0x0, symName: __ZNSt3__14pairIKNS_12basic_stringIcNS_11char_traitsIcEENS_9allocatorIcEEEENS_10shared_ptrI3VarEEEC1B8ne180100IJRS7_EJEJLm0EEJEEENS_21piecewise_construct_tERNS_5tupleIJDpT_EEERNSF_IJDpT0_EEENS_15__tuple_indicesIJXspT1_EEEENSO_IJXspT2_EEEE, symObjAddr: 0x12DEC, symBinAddr: 0x1000159A0, symSize: 0x3C }
  - { offset: 0x2FE75, size: 0x8, addend: 0x0, symName: __ZNSt3__14pairIKNS_12basic_stringIcNS_11char_traitsIcEENS_9allocatorIcEEEENS_10shared_ptrI3VarEEEC2B8ne180100IJRS7_EJEJLm0EEJEEENS_21piecewise_construct_tERNS_5tupleIJDpT_EEERNSF_IJDpT0_EEENS_15__tuple_indicesIJXspT1_EEEENSO_IJXspT2_EEEE, symObjAddr: 0x12E28, symBinAddr: 0x1000159DC, symSize: 0x50 }
  - { offset: 0x2FF05, size: 0x8, addend: 0x0, symName: __ZNSt3__112__tuple_leafILm0ERKNS_12basic_stringIcNS_11char_traitsIcEENS_9allocatorIcEEEELb0EE3getB8ne180100Ev, symObjAddr: 0x12E9C, symBinAddr: 0x100015A50, symSize: 0x18 }
  - { offset: 0x2FF2B, size: 0x8, addend: 0x0, symName: __ZNSt3__117__compressed_pairIPNS_11__hash_nodeINS_17__hash_value_typeINS_12basic_stringIcNS_11char_traitsIcEENS_9allocatorIcEEEENS_10shared_ptrI3VarEEEEPvEENS_22__hash_node_destructorINS6_ISE_EEEEE6secondB8ne180100Ev, symObjAddr: 0x12EB4, symBinAddr: 0x100015A68, symSize: 0x28 }
  - { offset: 0x2FF51, size: 0x8, addend: 0x0, symName: __ZNSt3__122__compressed_pair_elemINS_22__hash_node_destructorINS_9allocatorINS_11__hash_nodeINS_17__hash_value_typeINS_12basic_stringIcNS_11char_traitsIcEENS2_IcEEEENS_10shared_ptrI3VarEEEEPvEEEEEELi1ELb0EE5__getB8ne180100Ev, symObjAddr: 0x12EDC, symBinAddr: 0x100015A90, symSize: 0x14 }
  - { offset: 0x2FF77, size: 0x8, addend: 0x0, symName: __ZNSt3__117__compressed_pairIfNS_21__unordered_map_equalINS_12basic_stringIcNS_11char_traitsIcEENS_9allocatorIcEEEENS_17__hash_value_typeIS7_NS_10shared_ptrI3VarEEEENS_8equal_toIS7_EENS_4hashIS7_EELb1EEEE5firstB8ne180100Ev, symObjAddr: 0x12EF0, symBinAddr: 0x100015AA4, symSize: 0x24 }
  - { offset: 0x2FF9D, size: 0x8, addend: 0x0, symName: __ZNSt3__122__compressed_pair_elemIfLi0ELb0EE5__getB8ne180100Ev, symObjAddr: 0x12F14, symBinAddr: 0x100015AC8, symSize: 0x14 }
  - { offset: 0x2FFC3, size: 0x8, addend: 0x0, symName: __ZNSt3__112__hash_tableINS_17__hash_value_typeINS_12basic_stringIcNS_11char_traitsIcEENS_9allocatorIcEEEENS_10shared_ptrI3VarEEEENS_22__unordered_map_hasherIS7_SB_NS_4hashIS7_EENS_8equal_toIS7_EELb1EEENS_21__unordered_map_equalIS7_SB_SG_SE_Lb1EEENS5_ISB_EEE8__rehashILb1EEEvm, symObjAddr: 0x12F28, symBinAddr: 0x100015ADC, symSize: 0x1A8 }
  - { offset: 0x30013, size: 0x8, addend: 0x0, symName: __ZNSt3__112__hash_tableINS_17__hash_value_typeINS_12basic_stringIcNS_11char_traitsIcEENS_9allocatorIcEEEENS_10shared_ptrI3VarEEEENS_22__unordered_map_hasherIS7_SB_NS_4hashIS7_EENS_8equal_toIS7_EELb1EEENS_21__unordered_map_equalIS7_SB_SG_SE_Lb1EEENS5_ISB_EEE11__do_rehashILb1EEEvm, symObjAddr: 0x130D0, symBinAddr: 0x100015C84, symSize: 0x288 }
  - { offset: 0x300F6, size: 0x8, addend: 0x0, symName: __ZNSt3__110unique_ptrIA_PNS_16__hash_node_baseIPNS_11__hash_nodeINS_17__hash_value_typeINS_12basic_stringIcNS_11char_traitsIcEENS_9allocatorIcEEEENS_10shared_ptrI3VarEEEEPvEEEENS_25__bucket_list_deallocatorINS7_ISI_EEEEE5resetB8ne180100IPSI_Li0EEEvT_, symObjAddr: 0x133C4, symBinAddr: 0x100015F78, symSize: 0x78 }
  - { offset: 0x30149, size: 0x8, addend: 0x0, symName: __ZNSt3__116allocator_traitsINS_9allocatorIPNS_16__hash_node_baseIPNS_11__hash_nodeINS_17__hash_value_typeINS_12basic_stringIcNS_11char_traitsIcEENS1_IcEEEENS_10shared_ptrI3VarEEEEPvEEEEEEE8allocateB8ne180100ERSJ_m, symObjAddr: 0x1343C, symBinAddr: 0x100015FF0, symSize: 0x2C }
  - { offset: 0x3017C, size: 0x8, addend: 0x0, symName: __ZNSt3__19allocatorIPNS_16__hash_node_baseIPNS_11__hash_nodeINS_17__hash_value_typeINS_12basic_stringIcNS_11char_traitsIcEENS0_IcEEEENS_10shared_ptrI3VarEEEEPvEEEEE8allocateB8ne180100Em, symObjAddr: 0x13468, symBinAddr: 0x10001601C, symSize: 0x58 }
  - { offset: 0x301BC, size: 0x8, addend: 0x0, symName: __ZNSt3__116allocator_traitsINS_9allocatorIPNS_16__hash_node_baseIPNS_11__hash_nodeINS_17__hash_value_typeINS_12basic_stringIcNS_11char_traitsIcEENS1_IcEEEENS_10shared_ptrI3VarEEEEPvEEEEEEE8max_sizeB8ne180100ISJ_vvEEmRKSJ_, symObjAddr: 0x134C0, symBinAddr: 0x100016074, symSize: 0x28 }
  - { offset: 0x301E8, size: 0x8, addend: 0x0, symName: __ZNSt3__117__compressed_pairIPNS_11__hash_nodeINS_17__hash_value_typeINS_12basic_stringIcNS_11char_traitsIcEENS_9allocatorIcEEEENS_10shared_ptrI3VarEEEEPvEENS_22__hash_node_destructorINS6_ISE_EEEEE5firstB8ne180100Ev, symObjAddr: 0x13504, symBinAddr: 0x1000160B8, symSize: 0x24 }
  - { offset: 0x3020E, size: 0x8, addend: 0x0, symName: __ZNSt3__122__compressed_pair_elemIPNS_11__hash_nodeINS_17__hash_value_typeINS_12basic_stringIcNS_11char_traitsIcEENS_9allocatorIcEEEENS_10shared_ptrI3VarEEEEPvEELi0ELb0EE5__getB8ne180100Ev, symObjAddr: 0x13528, symBinAddr: 0x1000160DC, symSize: 0x14 }
  - { offset: 0x30234, size: 0x8, addend: 0x0, symName: __ZNSt3__110unique_ptrINS_11__hash_nodeINS_17__hash_value_typeINS_12basic_stringIcNS_11char_traitsIcEENS_9allocatorIcEEEENS_10shared_ptrI3VarEEEEPvEENS_22__hash_node_destructorINS6_ISE_EEEEED2B8ne180100Ev, symObjAddr: 0x1353C, symBinAddr: 0x1000160F0, symSize: 0x30 }
  - { offset: 0x3025E, size: 0x8, addend: 0x0, symName: __ZNSt3__110unique_ptrINS_11__hash_nodeINS_17__hash_value_typeINS_12basic_stringIcNS_11char_traitsIcEENS_9allocatorIcEEEENS_10shared_ptrI3VarEEEEPvEENS_22__hash_node_destructorINS6_ISE_EEEEE5resetB8ne180100EPSE_, symObjAddr: 0x1356C, symBinAddr: 0x100016120, symSize: 0x78 }
  - { offset: 0x302A2, size: 0x8, addend: 0x0, symName: __ZNSt3__122__hash_node_destructorINS_9allocatorINS_11__hash_nodeINS_17__hash_value_typeINS_12basic_stringIcNS_11char_traitsIcEENS1_IcEEEENS_10shared_ptrI3VarEEEEPvEEEEEclB8ne180100EPSE_, symObjAddr: 0x135E4, symBinAddr: 0x100016198, symSize: 0xA0 }
  - { offset: 0x302D7, size: 0x8, addend: 0x0, symName: __ZNSt3__115__hash_iteratorIPNS_11__hash_nodeINS_17__hash_value_typeINS_12basic_stringIcNS_11char_traitsIcEENS_9allocatorIcEEEENS_10shared_ptrI3VarEEEEPvEEEC2B8ne180100EPNS_16__hash_node_baseISF_EE, symObjAddr: 0x13684, symBinAddr: 0x100016238, symSize: 0x20 }
  - { offset: 0x30310, size: 0x8, addend: 0x0, symName: __ZNSt3__14pairINS_15__hash_iteratorIPNS_11__hash_nodeINS_17__hash_value_typeINS_12basic_stringIcNS_11char_traitsIcEENS_9allocatorIcEEEENS_10shared_ptrI3VarEEEEPvEEEEbEC2B8ne180100ISH_RbLi0EEEOT_OT0_, symObjAddr: 0x136A4, symBinAddr: 0x100016258, symSize: 0x38 }
  - { offset: 0x3036E, size: 0x8, addend: 0x0, symName: __ZNSt3__15tupleIJRKNS_12basic_stringIcNS_11char_traitsIcEENS_9allocatorIcEEEEEEC1B8ne180100INS_4_AndELi0EEES8_, symObjAddr: 0x136DC, symBinAddr: 0x100016290, symSize: 0x34 }
  - { offset: 0x303B6, size: 0x8, addend: 0x0, symName: __ZNSt3__15tupleIJRKNS_12basic_stringIcNS_11char_traitsIcEENS_9allocatorIcEEEEEEC2B8ne180100INS_4_AndELi0EEES8_, symObjAddr: 0x13710, symBinAddr: 0x1000162C4, symSize: 0x34 }
  - { offset: 0x303FE, size: 0x8, addend: 0x0, symName: __ZNSt3__112__tuple_implINS_15__tuple_indicesIJLm0EEEEJRKNS_12basic_stringIcNS_11char_traitsIcEENS_9allocatorIcEEEEEEC1B8ne180100IJLm0EEJSA_EJEJEJSA_EEENS1_IJXspT_EEEENS_13__tuple_typesIJDpT0_EEENS1_IJXspT1_EEEENSE_IJDpT2_EEEDpOT3_, symObjAddr: 0x13744, symBinAddr: 0x1000162F8, symSize: 0x34 }
  - { offset: 0x30493, size: 0x8, addend: 0x0, symName: __ZNSt3__112__tuple_implINS_15__tuple_indicesIJLm0EEEEJRKNS_12basic_stringIcNS_11char_traitsIcEENS_9allocatorIcEEEEEEC2B8ne180100IJLm0EEJSA_EJEJEJSA_EEENS1_IJXspT_EEEENS_13__tuple_typesIJDpT0_EEENS1_IJXspT1_EEEENSE_IJDpT2_EEEDpOT3_, symObjAddr: 0x13778, symBinAddr: 0x10001632C, symSize: 0x34 }
  - { offset: 0x30528, size: 0x8, addend: 0x0, symName: __ZNSt3__112__tuple_leafILm0ERKNS_12basic_stringIcNS_11char_traitsIcEENS_9allocatorIcEEEELb0EEC2B8ne180100IS8_vEEOT_, symObjAddr: 0x137AC, symBinAddr: 0x100016360, symSize: 0x20 }
  - { offset: 0x3056B, size: 0x8, addend: 0x0, symName: __ZNSt3__114pointer_traitsIPNS_17__hash_value_typeINS_12basic_stringIcNS_11char_traitsIcEENS_9allocatorIcEEEENS_10shared_ptrI3VarEEEEE10pointer_toB8ne180100ERSB_, symObjAddr: 0x137CC, symBinAddr: 0x100016380, symSize: 0x14 }
  - { offset: 0x3058E, size: 0x8, addend: 0x0, symName: __ZNSt3__110shared_ptrI3VarE4swapB8ne180100ERS2_, symObjAddr: 0x137E0, symBinAddr: 0x100016394, symSize: 0x44 }
  - { offset: 0x305C3, size: 0x8, addend: 0x0, symName: __ZN3VarD2Ev, symObjAddr: 0x1389C, symBinAddr: 0x100016450, symSize: 0x30 }
  - { offset: 0x305EF, size: 0x8, addend: 0x0, symName: __ZNSt3__110shared_ptrI3VarEC2B8ne180100ERKS2_, symObjAddr: 0x138CC, symBinAddr: 0x100016480, symSize: 0x70 }
  - { offset: 0x30628, size: 0x8, addend: 0x0, symName: __ZNSt3__119__shared_weak_count12__add_sharedB8ne180100Ev, symObjAddr: 0x1393C, symBinAddr: 0x1000164F0, symSize: 0x24 }
  - { offset: 0x3064E, size: 0x8, addend: 0x0, symName: __ZNSt3__114__shared_count12__add_sharedB8ne180100Ev, symObjAddr: 0x13960, symBinAddr: 0x100016514, symSize: 0x28 }
  - { offset: 0x30674, size: 0x8, addend: 0x0, symName: __ZN7ASTNodeC2ENS_4TypeEN6emplex5TokenE, symObjAddr: 0x139B8, symBinAddr: 0x10001656C, symSize: 0x7C }
  - { offset: 0x306BB, size: 0x8, addend: 0x0, symName: __ZN11SymbolTable11GetIdByNameEiNSt3__112basic_stringIcNS0_11char_traitsIcEENS0_9allocatorIcEEEE, symObjAddr: 0x13A34, symBinAddr: 0x1000165E8, symSize: 0x224 }
  - { offset: 0x3070C, size: 0x8, addend: 0x0, symName: __ZNK11SymbolTable8GetScopeENSt3__112basic_stringIcNS0_11char_traitsIcEENS0_9allocatorIcEEEE, symObjAddr: 0x13C58, symBinAddr: 0x10001680C, symSize: 0x80 }
  - { offset: 0x30775, size: 0x8, addend: 0x0, symName: __ZNK11SymbolTable12IsValidScopeENSt3__116reverse_iteratorINS0_11__wrap_iterIPK8VarTableEEEE, symObjAddr: 0x13CD8, symBinAddr: 0x10001688C, symSize: 0x54 }
  - { offset: 0x307A9, size: 0x8, addend: 0x0, symName: __ZNKSt3__116reverse_iteratorINS_11__wrap_iterIPK8VarTableEEEptB8ne180100Ev, symObjAddr: 0x13D2C, symBinAddr: 0x1000168E0, symSize: 0x44 }
  - { offset: 0x307CF, size: 0x8, addend: 0x0, symName: __ZNK8VarTable6GetVarEiNSt3__112basic_stringIcNS0_11char_traitsIcEENS0_9allocatorIcEEEE, symObjAddr: 0x13D70, symBinAddr: 0x100016924, symSize: 0x198 }
  - { offset: 0x30812, size: 0x8, addend: 0x0, symName: __ZNKSt3__16vectorI8VarTableNS_9allocatorIS1_EEE6rbeginB8ne180100Ev, symObjAddr: 0x13F8C, symBinAddr: 0x100016B40, symSize: 0x44 }
  - { offset: 0x30838, size: 0x8, addend: 0x0, symName: __ZNKSt3__16vectorI8VarTableNS_9allocatorIS1_EEE4rendB8ne180100Ev, symObjAddr: 0x13FD0, symBinAddr: 0x100016B84, symSize: 0x44 }
  - { offset: 0x3086F, size: 0x8, addend: 0x0, symName: __ZZNK11SymbolTable8GetScopeENSt3__112basic_stringIcNS0_11char_traitsIcEENS0_9allocatorIcEEEEENKUlRT_E_clIK8VarTableEEDaS8_, symObjAddr: 0x14068, symBinAddr: 0x100016C1C, symSize: 0x80 }
  - { offset: 0x308B0, size: 0x8, addend: 0x0, symName: __ZNKSt3__116reverse_iteratorINS_11__wrap_iterIPK8VarTableEEEdeB8ne180100Ev, symObjAddr: 0x140E8, symBinAddr: 0x100016C9C, symSize: 0x34 }
  - { offset: 0x308E4, size: 0x8, addend: 0x0, symName: __ZNSt3__116reverse_iteratorINS_11__wrap_iterIPK8VarTableEEEppB8ne180100Ev, symObjAddr: 0x1411C, symBinAddr: 0x100016CD0, symSize: 0x30 }
  - { offset: 0x3090A, size: 0x8, addend: 0x0, symName: __ZNKSt3__116reverse_iteratorINS_11__wrap_iterIPK8VarTableEEE4baseB8ne180100Ev, symObjAddr: 0x14180, symBinAddr: 0x100016D34, symSize: 0x20 }
  - { offset: 0x30930, size: 0x8, addend: 0x0, symName: __ZNKSt3__111__wrap_iterIPK8VarTableE4baseB8ne180100Ev, symObjAddr: 0x141E8, symBinAddr: 0x100016D9C, symSize: 0x18 }
  - { offset: 0x30956, size: 0x8, addend: 0x0, symName: __ZNSt3__111__wrap_iterIPK8VarTableEmmB8ne180100Ev, symObjAddr: 0x14200, symBinAddr: 0x100016DB4, symSize: 0x20 }
  - { offset: 0x3097C, size: 0x8, addend: 0x0, symName: __ZNKSt3__111__wrap_iterIPK8VarTableEdeB8ne180100Ev, symObjAddr: 0x14220, symBinAddr: 0x100016DD4, symSize: 0x18 }
  - { offset: 0x309A2, size: 0x8, addend: 0x0, symName: __ZNKSt3__16vectorI8VarTableNS_9allocatorIS1_EEE3endB8ne180100Ev, symObjAddr: 0x14238, symBinAddr: 0x100016DEC, symSize: 0x30 }
  - { offset: 0x309CA, size: 0x8, addend: 0x0, symName: __ZNSt3__116reverse_iteratorINS_11__wrap_iterIPK8VarTableEEEC1B8ne180100ES5_, symObjAddr: 0x14268, symBinAddr: 0x100016E1C, symSize: 0x34 }
  - { offset: 0x30A02, size: 0x8, addend: 0x0, symName: __ZNKSt3__16vectorI8VarTableNS_9allocatorIS1_EEE11__make_iterB8ne180100EPKS1_, symObjAddr: 0x1429C, symBinAddr: 0x100016E50, symSize: 0x30 }
  - { offset: 0x30A37, size: 0x8, addend: 0x0, symName: __ZNSt3__111__wrap_iterIPK8VarTableEC1B8ne180100ES3_, symObjAddr: 0x142CC, symBinAddr: 0x100016E80, symSize: 0x34 }
  - { offset: 0x30A6F, size: 0x8, addend: 0x0, symName: __ZNSt3__111__wrap_iterIPK8VarTableEC2B8ne180100ES3_, symObjAddr: 0x14300, symBinAddr: 0x100016EB4, symSize: 0x20 }
  - { offset: 0x30AA7, size: 0x8, addend: 0x0, symName: __ZNSt3__116reverse_iteratorINS_11__wrap_iterIPK8VarTableEEEC2B8ne180100ES5_, symObjAddr: 0x14320, symBinAddr: 0x100016ED4, symSize: 0x28 }
  - { offset: 0x30ADF, size: 0x8, addend: 0x0, symName: __ZNKSt3__16vectorI8VarTableNS_9allocatorIS1_EEE5beginB8ne180100Ev, symObjAddr: 0x14348, symBinAddr: 0x100016EFC, symSize: 0x30 }
  - { offset: 0x30B07, size: 0x8, addend: 0x0, symName: __ZNKSt3__111__wrap_iterIPK8VarTableEptB8ne180100Ev, symObjAddr: 0x143BC, symBinAddr: 0x100016F70, symSize: 0x28 }
  - { offset: 0x30B2D, size: 0x8, addend: 0x0, symName: __ZNSt3__111__wrap_iterIPK8VarTableEpLB8ne180100El, symObjAddr: 0x14448, symBinAddr: 0x100016FFC, symSize: 0x30 }
  - { offset: 0x30B61, size: 0x8, addend: 0x0, symName: __ZNKSt3__113unordered_mapINS_12basic_stringIcNS_11char_traitsIcEENS_9allocatorIcEEEENS_10shared_ptrI3VarEENS_4hashIS6_EENS_8equal_toIS6_EENS4_INS_4pairIKS6_S9_EEEEE2atERSF_, symObjAddr: 0x1448C, symBinAddr: 0x100017040, symSize: 0x7C }
  - { offset: 0x30BA7, size: 0x8, addend: 0x0, symName: __ZNKSt3__110shared_ptrI3VarEdeB8ne180100Ev, symObjAddr: 0x14508, symBinAddr: 0x1000170BC, symSize: 0x18 }
  - { offset: 0x30BCD, size: 0x8, addend: 0x0, symName: __ZNKSt3__125__hash_map_const_iteratorINS_21__hash_const_iteratorIPNS_11__hash_nodeINS_17__hash_value_typeINS_12basic_stringIcNS_11char_traitsIcEENS_9allocatorIcEEEENS_10shared_ptrI3VarEEEEPvEEEEEptB8ne180100Ev, symObjAddr: 0x14520, symBinAddr: 0x1000170D4, symSize: 0x2C }
  - { offset: 0x30BF3, size: 0x8, addend: 0x0, symName: __ZNSt3__114pointer_traitsIPKNS_4pairIKNS_12basic_stringIcNS_11char_traitsIcEENS_9allocatorIcEEEENS_10shared_ptrI3VarEEEEE10pointer_toB8ne180100ERSD_, symObjAddr: 0x1454C, symBinAddr: 0x100017100, symSize: 0x14 }
  - { offset: 0x30C16, size: 0x8, addend: 0x0, symName: __ZNKSt3__121__hash_const_iteratorIPNS_11__hash_nodeINS_17__hash_value_typeINS_12basic_stringIcNS_11char_traitsIcEENS_9allocatorIcEEEENS_10shared_ptrI3VarEEEEPvEEEptB8ne180100Ev, symObjAddr: 0x14560, symBinAddr: 0x100017114, symSize: 0x30 }
  - { offset: 0x30C3C, size: 0x8, addend: 0x0, symName: __ZNSt3__114pointer_traitsIPKNS_17__hash_value_typeINS_12basic_stringIcNS_11char_traitsIcEENS_9allocatorIcEEEENS_10shared_ptrI3VarEEEEE10pointer_toB8ne180100ERSC_, symObjAddr: 0x14590, symBinAddr: 0x100017144, symSize: 0x14 }
  - { offset: 0x30C5F, size: 0x8, addend: 0x0, symName: __ZN11SymbolTable8PopScopeEv, symObjAddr: 0x145A4, symBinAddr: 0x100017158, symSize: 0x24 }
  - { offset: 0x30C85, size: 0x8, addend: 0x0, symName: __ZNSt3__16vectorI8VarTableNS_9allocatorIS1_EEE8pop_backEv, symObjAddr: 0x145C8, symBinAddr: 0x10001717C, symSize: 0x2C }
  - { offset: 0x30CAD, size: 0x8, addend: 0x0, symName: __ZNSt3__16vectorI8VarTableNS_9allocatorIS1_EEE17__destruct_at_endB8ne180100EPS1_, symObjAddr: 0x145F4, symBinAddr: 0x1000171A8, symSize: 0x4C }
  - { offset: 0x30CF1, size: 0x8, addend: 0x0, symName: __ZNKSt3__16vectorI8VarTableNS_9allocatorIS1_EEE17__annotate_shrinkB8ne180100Em, symObjAddr: 0x14640, symBinAddr: 0x1000171F4, symSize: 0x14 }
  - { offset: 0x30D26, size: 0x8, addend: 0x0, symName: __ZNSt3__110shared_ptrI7ASTNodeEaSB8ne180100EOS2_, symObjAddr: 0x14654, symBinAddr: 0x100017208, symSize: 0x50 }
  - { offset: 0x30D5B, size: 0x8, addend: 0x0, symName: __ZN7ASTNode8SetValueEd, symObjAddr: 0x146A4, symBinAddr: 0x100017258, symSize: 0x20 }
  - { offset: 0x30D8F, size: 0x8, addend: 0x0, symName: __ZNSt3__110shared_ptrI7ASTNodeE4swapB8ne180100ERS2_, symObjAddr: 0x146C4, symBinAddr: 0x100017278, symSize: 0x44 }
  - { offset: 0x30DC4, size: 0x8, addend: 0x0, symName: __ZNKSt3__16vectorIN6emplex5TokenENS_9allocatorIS2_EEE20__throw_out_of_rangeB8ne180100Ev, symObjAddr: 0x14744, symBinAddr: 0x1000172F8, symSize: 0x1C }
  - { offset: 0x30DEA, size: 0x8, addend: 0x0, symName: __ZN3ErrC2EmNSt3__112basic_stringIcNS0_11char_traitsIcEENS0_9allocatorIcEEEE, symObjAddr: 0x14760, symBinAddr: 0x100017314, symSize: 0x1C0 }
  - { offset: 0x30E46, size: 0x8, addend: 0x0, symName: __ZNSt9exceptionC2B8ne180100Ev, symObjAddr: 0x14920, symBinAddr: 0x1000174D4, symSize: 0x24 }
  - { offset: 0x30E70, size: 0x8, addend: 0x0, symName: __ZN3ErrD0Ev, symObjAddr: 0x14944, symBinAddr: 0x1000174F8, symSize: 0x30 }
  - { offset: 0x30E9C, size: 0x8, addend: 0x0, symName: __ZNK3Err4whatEv, symObjAddr: 0x14974, symBinAddr: 0x100017528, symSize: 0x28 }
  - { offset: 0x30EC2, size: 0x8, addend: 0x0, symName: __ZNKSt3__112basic_stringIcNS_11char_traitsIcEENS_9allocatorIcEEE5c_strB8ne180100Ev, symObjAddr: 0x1499C, symBinAddr: 0x100017550, symSize: 0x24 }
  - { offset: 0x30EE8, size: 0x8, addend: 0x0, symName: __ZN3ErrD2Ev, symObjAddr: 0x149C0, symBinAddr: 0x100017574, symSize: 0x48 }
  - { offset: 0x30F14, size: 0x8, addend: 0x0, symName: __ZNSt3__110shared_ptrI7ASTNodeEC2B8ne180100ERKS2_, symObjAddr: 0x14A08, symBinAddr: 0x1000175BC, symSize: 0x70 }
  - { offset: 0x30F4D, size: 0x8, addend: 0x0, symName: __ZN7ASTNode3RunER11SymbolTable, symObjAddr: 0x14A78, symBinAddr: 0x10001762C, symSize: 0x1F8 }
  - { offset: 0x30FCE, size: 0x8, addend: 0x0, symName: __ZN6LoggerlsIA8_cEERS_RKT_, symObjAddr: 0x14C70, symBinAddr: 0x100017824, symSize: 0x12C }
  - { offset: 0x31020, size: 0x8, addend: 0x0, symName: __ZNK7ASTNode7GetTypeEv, symObjAddr: 0x14D9C, symBinAddr: 0x100017950, symSize: 0x18 }
  - { offset: 0x31060, size: 0x8, addend: 0x0, symName: __ZN6LoggerlsIA15_cEERS_RKT_, symObjAddr: 0x14DB4, symBinAddr: 0x100017968, symSize: 0x12C }
  - { offset: 0x310BE, size: 0x8, addend: 0x0, symName: __ZN6LoggerlsIN7ASTNode4TypeEEERS_RKT_, symObjAddr: 0x14EE0, symBinAddr: 0x100017A94, symSize: 0x130 }
  - { offset: 0x31110, size: 0x8, addend: 0x0, symName: __ZNSt3__16vectorINS_10shared_ptrI7ASTNodeEENS_9allocatorIS3_EEE5beginB8ne180100Ev, symObjAddr: 0x15010, symBinAddr: 0x100017BC4, symSize: 0x30 }
  - { offset: 0x31138, size: 0x8, addend: 0x0, symName: __ZNSt3__16vectorINS_10shared_ptrI7ASTNodeEENS_9allocatorIS3_EEE3endB8ne180100Ev, symObjAddr: 0x15040, symBinAddr: 0x100017BF4, symSize: 0x30 }
  - { offset: 0x31160, size: 0x8, addend: 0x0, symName: __ZNKSt3__111__wrap_iterIPNS_10shared_ptrI7ASTNodeEEEdeB8ne180100Ev, symObjAddr: 0x150A4, symBinAddr: 0x100017C58, symSize: 0x18 }
  - { offset: 0x31186, size: 0x8, addend: 0x0, symName: __ZNSt3__111__wrap_iterIPNS_10shared_ptrI7ASTNodeEEEppB8ne180100Ev, symObjAddr: 0x150BC, symBinAddr: 0x100017C70, symSize: 0x20 }
  - { offset: 0x311AC, size: 0x8, addend: 0x0, symName: __ZN7ASTNode8RunPrintER11SymbolTable, symObjAddr: 0x150DC, symBinAddr: 0x100017C90, symSize: 0xF0 }
  - { offset: 0x31221, size: 0x8, addend: 0x0, symName: __ZN7ASTNode9RunAssignER11SymbolTable, symObjAddr: 0x151CC, symBinAddr: 0x100017D80, symSize: 0xB4 }
  - { offset: 0x31255, size: 0x8, addend: 0x0, symName: __ZNSt3__16vectorINS_10shared_ptrI7ASTNodeEENS_9allocatorIS3_EEE11__make_iterB8ne180100EPS3_, symObjAddr: 0x15280, symBinAddr: 0x100017E34, symSize: 0x30 }
  - { offset: 0x3128A, size: 0x8, addend: 0x0, symName: __ZNSt3__111__wrap_iterIPNS_10shared_ptrI7ASTNodeEEEC1B8ne180100ES4_, symObjAddr: 0x152B0, symBinAddr: 0x100017E64, symSize: 0x34 }
  - { offset: 0x312C2, size: 0x8, addend: 0x0, symName: __ZNSt3__111__wrap_iterIPNS_10shared_ptrI7ASTNodeEEEC2B8ne180100ES4_, symObjAddr: 0x152E4, symBinAddr: 0x100017E98, symSize: 0x20 }
  - { offset: 0x312FA, size: 0x8, addend: 0x0, symName: __ZNKSt3__111__wrap_iterIPNS_10shared_ptrI7ASTNodeEEE4baseB8ne180100Ev, symObjAddr: 0x1534C, symBinAddr: 0x100017F00, symSize: 0x18 }
  - { offset: 0x31320, size: 0x8, addend: 0x0, symName: __ZN7ASTNode9PrintNodeERNSt3__113basic_ostreamIcNS0_11char_traitsIcEEEER11SymbolTable, symObjAddr: 0x15364, symBinAddr: 0x100017F18, symSize: 0xAC }
  - { offset: 0x31362, size: 0x8, addend: 0x0, symName: __ZNK7ASTNode8GetValueEv, symObjAddr: 0x15410, symBinAddr: 0x100017FC4, symSize: 0x18 }
  - { offset: 0x31388, size: 0x8, addend: 0x0, symName: __ZNK11SymbolTable8GetValueEim, symObjAddr: 0x15428, symBinAddr: 0x100017FDC, symSize: 0x130 }
  - { offset: 0x313CA, size: 0x8, addend: 0x0, symName: __ZNK7ASTNode5GetIdEv, symObjAddr: 0x15558, symBinAddr: 0x10001810C, symSize: 0x18 }
  - { offset: 0x313F0, size: 0x8, addend: 0x0, symName: __ZNKSt3__16vectorINS_10shared_ptrI3VarEENS_9allocatorIS3_EEE2atEm, symObjAddr: 0x15570, symBinAddr: 0x100018124, symSize: 0x60 }
  - { offset: 0x31427, size: 0x8, addend: 0x0, symName: __ZNKSt3__110shared_ptrI3VarEptB8ne180100Ev, symObjAddr: 0x155D0, symBinAddr: 0x100018184, symSize: 0x18 }
  - { offset: 0x3144D, size: 0x8, addend: 0x0, symName: __ZNKSt3__16vectorINS_10shared_ptrI3VarEENS_9allocatorIS3_EEE20__throw_out_of_rangeB8ne180100Ev, symObjAddr: 0x155E8, symBinAddr: 0x10001819C, symSize: 0x1C }
  - { offset: 0x31473, size: 0x8, addend: 0x0, symName: __ZNSt3__16vectorINS_10shared_ptrI7ASTNodeEENS_9allocatorIS3_EEE2atEm, symObjAddr: 0x15604, symBinAddr: 0x1000181B8, symSize: 0x60 }
  - { offset: 0x314AA, size: 0x8, addend: 0x0, symName: __ZN11SymbolTable8SetValueEimd, symObjAddr: 0x15664, symBinAddr: 0x100018218, symSize: 0x140 }
  - { offset: 0x314FA, size: 0x8, addend: 0x0, symName: __ZNKSt3__16vectorINS_10shared_ptrI7ASTNodeEENS_9allocatorIS3_EEE20__throw_out_of_rangeB8ne180100Ev, symObjAddr: 0x157A4, symBinAddr: 0x100018358, symSize: 0x1C }
  - { offset: 0x31520, size: 0x8, addend: 0x0, symName: __ZNSt3__16vectorINS_10shared_ptrI3VarEENS_9allocatorIS3_EEE2atEm, symObjAddr: 0x157C0, symBinAddr: 0x100018374, symSize: 0x60 }
  - { offset: 0x31557, size: 0x8, addend: 0x0, symName: __ZN8CompilerD2Ev, symObjAddr: 0x15820, symBinAddr: 0x1000183D4, symSize: 0x50 }
  - { offset: 0x31583, size: 0x8, addend: 0x0, symName: __ZNSt3__114basic_ifstreamIcNS_11char_traitsIcEEED2Ev, symObjAddr: 0x15870, symBinAddr: 0x100018424, symSize: 0x64 }
  - { offset: 0x315BD, size: 0x8, addend: 0x0, symName: __ZTv0_n24_NSt3__114basic_ifstreamIcNS_11char_traitsIcEEED1Ev, symObjAddr: 0x158D4, symBinAddr: 0x100018488, symSize: 0x28 }
  - { offset: 0x315F6, size: 0x8, addend: 0x0, symName: __ZNKSt3__113basic_ostreamIcNS_11char_traitsIcEEE6sentrycvbB8ne180100Ev, symObjAddr: 0x15AE8, symBinAddr: 0x10001869C, symSize: 0x1C }
  - { offset: 0x3161C, size: 0x8, addend: 0x0, symName: __ZNSt3__119ostreambuf_iteratorIcNS_11char_traitsIcEEEC1B8ne180100ERNS_13basic_ostreamIcS2_EE, symObjAddr: 0x15D44, symBinAddr: 0x1000188F8, symSize: 0x34 }
  - { offset: 0x31654, size: 0x8, addend: 0x0, symName: __ZNKSt3__18ios_base5flagsB8ne180100Ev, symObjAddr: 0x15D78, symBinAddr: 0x10001892C, symSize: 0x18 }
  - { offset: 0x3167C, size: 0x8, addend: 0x0, symName: __ZNKSt3__19basic_iosIcNS_11char_traitsIcEEE4fillB8ne180100Ev, symObjAddr: 0x15D90, symBinAddr: 0x100018944, symSize: 0x64 }
  - { offset: 0x316A4, size: 0x8, addend: 0x0, symName: __ZNKSt3__119ostreambuf_iteratorIcNS_11char_traitsIcEEE6failedB8ne180100Ev, symObjAddr: 0x15DF4, symBinAddr: 0x1000189A8, symSize: 0x24 }
  - { offset: 0x316CA, size: 0x8, addend: 0x0, symName: __ZNKSt3__18ios_base5widthB8ne180100Ev, symObjAddr: 0x15E18, symBinAddr: 0x1000189CC, symSize: 0x18 }
  - { offset: 0x316F2, size: 0x8, addend: 0x0, symName: __ZNSt3__115basic_streambufIcNS_11char_traitsIcEEE5sputnB8ne180100EPKcl, symObjAddr: 0x15E30, symBinAddr: 0x1000189E4, symSize: 0x3C }
  - { offset: 0x31734, size: 0x8, addend: 0x0, symName: __ZNSt3__112basic_stringIcNS_11char_traitsIcEENS_9allocatorIcEEEC1B8ne180100Emc, symObjAddr: 0x15E6C, symBinAddr: 0x100018A20, symSize: 0x3C }
  - { offset: 0x3177C, size: 0x8, addend: 0x0, symName: __ZNSt3__112basic_stringIcNS_11char_traitsIcEENS_9allocatorIcEEE4dataB8ne180100Ev, symObjAddr: 0x15EA8, symBinAddr: 0x100018A5C, symSize: 0x28 }
  - { offset: 0x317A2, size: 0x8, addend: 0x0, symName: __ZNSt3__18ios_base5widthB8ne180100El, symObjAddr: 0x15ED0, symBinAddr: 0x100018A84, symSize: 0x2C }
  - { offset: 0x317E8, size: 0x8, addend: 0x0, symName: __ZNSt3__112basic_stringIcNS_11char_traitsIcEENS_9allocatorIcEEEC2B8ne180100Emc, symObjAddr: 0x15EFC, symBinAddr: 0x100018AB0, symSize: 0x4C }
  - { offset: 0x31830, size: 0x8, addend: 0x0, symName: __ZNSt3__119ostreambuf_iteratorIcNS_11char_traitsIcEEEC2B8ne180100ERNS_13basic_ostreamIcS2_EE, symObjAddr: 0x15F48, symBinAddr: 0x100018AFC, symSize: 0x54 }
  - { offset: 0x31868, size: 0x8, addend: 0x0, symName: __ZNKSt3__19basic_iosIcNS_11char_traitsIcEEE5widenB8ne180100Ec, symObjAddr: 0x15F9C, symBinAddr: 0x100018B50, symSize: 0x84 }
  - { offset: 0x318E5, size: 0x8, addend: 0x0, symName: __ZNKSt3__15ctypeIcE5widenB8ne180100Ec, symObjAddr: 0x1604C, symBinAddr: 0x100018C00, symSize: 0x38 }
  - { offset: 0x3191A, size: 0x8, addend: 0x0, symName: __ZNSt3__113basic_filebufIcNS_11char_traitsIcEEE4openERKNS_12basic_stringIcS2_NS_9allocatorIcEEEEj, symObjAddr: 0x16084, symBinAddr: 0x100018C38, symSize: 0x44 }
  - { offset: 0x31960, size: 0x8, addend: 0x0, symName: __ZNKSt3__18ios_base4failB8ne180100Ev, symObjAddr: 0x160C8, symBinAddr: 0x100018C7C, symSize: 0x28 }
...
